CCS PCH C Compiler, Version 5.115, 29001               18-Aug-25 15:38

               Filename:   C:\Users\Mike Pap\Documents\PICC\mixais\main515.lst

               ROM used:   7558 bytes (6%)
                           Largest free fragment is 65536
               RAM used:   6206 (76%) at main() level
                           6235 (76%) worst case
               Stack used: 3 locations
               Stack size: 127

*
00000:  GOTO   182E
.................... #include <main515.h>
.................... #include <18F57Q43.h>
.................... //////////// Standard Header file for the PIC18F57Q43 device ////////////////
.................... ///////////////////////////////////////////////////////////////////////////
.................... ////        (C) Copyright 1996, 2020 Custom Computer Services          ////
.................... //// This source code may only be used by licensed users of the CCS C  ////
.................... //// compiler.  This source code may only be distributed to other      ////
.................... //// licensed users of the CCS C compiler.  No other use, reproduction ////
.................... //// or distribution is permitted without written permission.          ////
.................... //// Derivative programs created using this software in object code    ////
.................... //// form are not restricted in any way.                               ////
.................... ///////////////////////////////////////////////////////////////////////////
.................... #device PIC18F57Q43
00004:  ADDLW  16
00006:  MOVWF  4F6
00008:  MOVLW  00
0000A:  ADDWFC 4F7,F
0000C:  MOVLW  00
0000E:  MOVWF  4F8
00010:  TBLRD*+
00012:  MOVF   4F5,W
00014:  RETURN 0
00016:  DATA 00,00
00018:  DATA 00,00
0001A:  DATA 00,00
0001C:  DATA 00,00
0001E:  DATA 00,00
00020:  DATA 00,00
00022:  DATA 00,00
00024:  DATA 00,00
00026:  DATA 00,00
00028:  DATA 38,FC
0002A:  DATA FC,38
0002C:  DATA 00,00
0002E:  DATA 00,00
00030:  DATA 00,0D
00032:  DATA 0D,00
00034:  DATA 00,00
00036:  DATA 00,0E
00038:  DATA 1E,00
0003A:  DATA 00,1E
0003C:  DATA 0E,00
0003E:  DATA 00,00
00040:  DATA 00,00
00042:  DATA 00,00
00044:  DATA 00,00
00046:  DATA 20,F8
00048:  DATA F8,20
0004A:  DATA F8,F8
0004C:  DATA 20,00
0004E:  DATA 02,0F
00050:  DATA 0F,02
00052:  DATA 0F,0F
00054:  DATA 02,00
00056:  DATA 38,7C
00058:  DATA 44,47
0005A:  DATA 47,CC
0005C:  DATA 98,00
0005E:  DATA 06,0C
00060:  DATA 08,38
00062:  DATA 38,0F
00064:  DATA 07,00
00066:  DATA 30,30
00068:  DATA 00,80
0006A:  DATA C0,60
0006C:  DATA 30,00
0006E:  DATA 0C,06
00070:  DATA 03,01
00072:  DATA 00,0C
00074:  DATA 0C,00
00076:  DATA 80,D8
00078:  DATA 7C,E4
0007A:  DATA BC,D8
0007C:  DATA 40,00
0007E:  DATA 07,0F
00080:  DATA 08,08
00082:  DATA 07,0F
00084:  DATA 08,00
00086:  DATA 00,10
00088:  DATA 1E,0E
0008A:  DATA 00,00
0008C:  DATA 00,00
0008E:  DATA 00,00
00090:  DATA 00,00
00092:  DATA 00,00
00094:  DATA 00,00
00096:  DATA 00,00
00098:  DATA F0,F8
0009A:  DATA 0C,04
0009C:  DATA 00,00
0009E:  DATA 00,00
000A0:  DATA 03,07
000A2:  DATA 0C,08
000A4:  DATA 00,00
000A6:  DATA 00,00
000A8:  DATA 04,0C
000AA:  DATA F8,F0
000AC:  DATA 00,00
000AE:  DATA 00,00
000B0:  DATA 08,0C
000B2:  DATA 07,03
000B4:  DATA 00,00
000B6:  DATA 80,A0
000B8:  DATA E0,C0
000BA:  DATA C0,E0
000BC:  DATA A0,80
000BE:  DATA 00,02
000C0:  DATA 03,01
000C2:  DATA 01,03
000C4:  DATA 02,00
000C6:  DATA 00,80
000C8:  DATA 80,E0
000CA:  DATA E0,80
000CC:  DATA 80,00
000CE:  DATA 00,00
000D0:  DATA 00,03
000D2:  DATA 03,00
000D4:  DATA 00,00
000D6:  DATA 00,00
000D8:  DATA 00,00
000DA:  DATA 00,00
000DC:  DATA 00,00
000DE:  DATA 00,00
000E0:  DATA 10,1E
000E2:  DATA 0E,00
000E4:  DATA 00,00
000E6:  DATA 80,80
000E8:  DATA 80,80
000EA:  DATA 80,80
000EC:  DATA 80,00
000EE:  DATA 00,00
000F0:  DATA 00,00
000F2:  DATA 00,00
000F4:  DATA 00,00
000F6:  DATA 00,00
000F8:  DATA 00,00
000FA:  DATA 00,00
000FC:  DATA 00,00
000FE:  DATA 00,00
00100:  DATA 00,0C
00102:  DATA 0C,00
00104:  DATA 00,00
00106:  DATA 00,00
00108:  DATA 00,80
0010A:  DATA C0,60
0010C:  DATA 30,00
0010E:  DATA 0C,06
00110:  DATA 03,01
00112:  DATA 00,00
00114:  DATA 00,00
00116:  DATA F8,F8
00118:  DATA 0C,C4
0011A:  DATA 0C,F8
0011C:  DATA F0,00
0011E:  DATA 03,07
00120:  DATA 0C,08
00122:  DATA 0C,07
00124:  DATA 03,00
00126:  DATA 00,10
00128:  DATA 18,FC
0012A:  DATA FC,00
0012C:  DATA 00,00
0012E:  DATA 00,08
00130:  DATA 08,0F
00132:  DATA 0F,08
00134:  DATA 08,00
00136:  DATA 08,0C
00138:  DATA 84,C4
0013A:  DATA 64,3C
0013C:  DATA 18,00
0013E:  DATA 0E,0F
00140:  DATA 09,08
00142:  DATA 08,0C
00144:  DATA 0C,00
00146:  DATA 08,0C
00148:  DATA 44,44
0014A:  DATA 44,FC
0014C:  DATA B8,00
0014E:  DATA 04,0C
00150:  DATA 08,08
00152:  DATA 08,0F
00154:  DATA 07,00
00156:  DATA C0,E0
00158:  DATA B0,98
0015A:  DATA FC,FC
0015C:  DATA 80,00
0015E:  DATA 00,00
00160:  DATA 00,08
00162:  DATA 0F,0F
00164:  DATA 08,00
00166:  DATA 7C,7C
00168:  DATA 44,44
0016A:  DATA 44,C4
0016C:  DATA 84,00
0016E:  DATA 04,0C
00170:  DATA 08,08
00172:  DATA 08,0F
00174:  DATA 07,00
00176:  DATA F0,F8
00178:  DATA 4C,44
0017A:  DATA 44,C0
0017C:  DATA 80,00
0017E:  DATA 07,0F
00180:  DATA 08,08
00182:  DATA 08,0F
00184:  DATA 07,00
00186:  DATA 0C,0C
00188:  DATA 04,84
0018A:  DATA C4,7C
0018C:  DATA 3C,00
0018E:  DATA 00,00
00190:  DATA 0F,0F
00192:  DATA 00,00
00194:  DATA 00,00
00196:  DATA B8,FC
00198:  DATA 44,44
0019A:  DATA 44,FC
0019C:  DATA B8,00
0019E:  DATA 07,0F
001A0:  DATA 08,08
001A2:  DATA 08,0F
001A4:  DATA 07,00
001A6:  DATA 38,7C
001A8:  DATA 44,44
001AA:  DATA 44,FC
001AC:  DATA F8,00
001AE:  DATA 00,08
001B0:  DATA 08,08
001B2:  DATA 0C,07
001B4:  DATA 03,00
001B6:  DATA 00,00
001B8:  DATA 00,30
001BA:  DATA 30,00
001BC:  DATA 00,00
001BE:  DATA 00,00
001C0:  DATA 00,06
001C2:  DATA 06,00
001C4:  DATA 00,00
001C6:  DATA 00,00
001C8:  DATA 00,30
001CA:  DATA 30,00
001CC:  DATA 00,00
001CE:  DATA 00,00
001D0:  DATA 08,0E
001D2:  DATA 06,00
001D4:  DATA 00,00
001D6:  DATA 00,80
001D8:  DATA C0,60
001DA:  DATA 30,18
001DC:  DATA 08,00
001DE:  DATA 00,00
001E0:  DATA 01,03
001E2:  DATA 06,0C
001E4:  DATA 08,00
001E6:  DATA 00,20
001E8:  DATA 20,20
001EA:  DATA 20,20
001EC:  DATA 20,00
001EE:  DATA 00,01
001F0:  DATA 01,01
001F2:  DATA 01,01
001F4:  DATA 01,00
001F6:  DATA 00,08
001F8:  DATA 18,30
001FA:  DATA 60,C0
001FC:  DATA 80,00
001FE:  DATA 00,08
00200:  DATA 0C,06
00202:  DATA 03,01
00204:  DATA 00,00
00206:  DATA 18,1C
00208:  DATA 04,C4
0020A:  DATA E4,3C
0020C:  DATA 18,00
0020E:  DATA 00,00
00210:  DATA 00,0D
00212:  DATA 0D,00
00214:  DATA 00,00
00216:  DATA F0,F0
00218:  DATA 08,C8
0021A:  DATA C8,F8
0021C:  DATA F0,00
0021E:  DATA 07,0F
00220:  DATA 08,0B
00222:  DATA 0B,0B
00224:  DATA 01,00
00226:  DATA E0,F0
00228:  DATA 98,8C
0022A:  DATA 98,F0
0022C:  DATA E0,00
0022E:  DATA 0F,0F
00230:  DATA 00,00
00232:  DATA 00,0F
00234:  DATA 0F,00
00236:  DATA 04,FC
00238:  DATA FC,44
0023A:  DATA 44,FC
0023C:  DATA B8,00
0023E:  DATA 08,0F
00240:  DATA 0F,08
00242:  DATA 08,0F
00244:  DATA 07,00
00246:  DATA F0,F8
00248:  DATA 0C,04
0024A:  DATA 04,0C
0024C:  DATA 18,00
0024E:  DATA 03,07
00250:  DATA 0C,08
00252:  DATA 08,0C
00254:  DATA 06,00
00256:  DATA 04,FC
00258:  DATA FC,04
0025A:  DATA 0C,F8
0025C:  DATA F0,00
0025E:  DATA 08,0F
00260:  DATA 0F,08
00262:  DATA 0C,07
00264:  DATA 03,00
00266:  DATA 04,FC
00268:  DATA FC,44
0026A:  DATA E4,0C
0026C:  DATA 1C,00
0026E:  DATA 08,0F
00270:  DATA 0F,08
00272:  DATA 08,0C
00274:  DATA 0E,00
00276:  DATA 04,FC
00278:  DATA FC,44
0027A:  DATA E4,0C
0027C:  DATA 1C,00
0027E:  DATA 08,0F
00280:  DATA 0F,08
00282:  DATA 00,00
00284:  DATA 00,00
00286:  DATA F0,F8
00288:  DATA 0C,84
0028A:  DATA 84,8C
0028C:  DATA 98,00
0028E:  DATA 03,07
00290:  DATA 0C,08
00292:  DATA 08,07
00294:  DATA 0F,00
00296:  DATA FC,FC
00298:  DATA 40,40
0029A:  DATA 40,FC
0029C:  DATA FC,00
0029E:  DATA 0F,0F
002A0:  DATA 00,00
002A2:  DATA 00,0F
002A4:  DATA 0F,00
002A6:  DATA 00,00
002A8:  DATA 04,FC
002AA:  DATA FC,04
002AC:  DATA 00,00
002AE:  DATA 00,00
002B0:  DATA 08,0F
002B2:  DATA 0F,08
002B4:  DATA 00,00
002B6:  DATA 00,00
002B8:  DATA 00,04
002BA:  DATA FC,FC
002BC:  DATA 04,00
002BE:  DATA 07,0F
002C0:  DATA 08,08
002C2:  DATA 0F,07
002C4:  DATA 00,00
002C6:  DATA 04,FC
002C8:  DATA FC,C0
002CA:  DATA E0,3C
002CC:  DATA 1C,00
002CE:  DATA 08,0F
002D0:  DATA 0F,00
002D2:  DATA 01,0F
002D4:  DATA 0E,00
002D6:  DATA 04,FC
002D8:  DATA FC,04
002DA:  DATA 00,00
002DC:  DATA 00,00
002DE:  DATA 08,0F
002E0:  DATA 0F,08
002E2:  DATA 08,0C
002E4:  DATA 0E,00
002E6:  DATA FC,FC
002E8:  DATA 38,70
002EA:  DATA 38,FC
002EC:  DATA FC,00
002EE:  DATA 0F,0F
002F0:  DATA 00,00
002F2:  DATA 00,0F
002F4:  DATA 0F,00
002F6:  DATA FC,FC
002F8:  DATA 38,70
002FA:  DATA E0,FC
002FC:  DATA FC,00
002FE:  DATA 0F,0F
00300:  DATA 00,00
00302:  DATA 00,0F
00304:  DATA 0F,00
00306:  DATA F8,FC
00308:  DATA 04,04
0030A:  DATA 04,FC
0030C:  DATA F8,00
0030E:  DATA 07,0F
00310:  DATA 08,08
00312:  DATA 08,0F
00314:  DATA 07,00
00316:  DATA 04,FC
00318:  DATA FC,44
0031A:  DATA 44,7C
0031C:  DATA 38,00
0031E:  DATA 08,0F
00320:  DATA 0F,08
00322:  DATA 00,00
00324:  DATA 00,00
00326:  DATA F8,FC
00328:  DATA 04,04
0032A:  DATA 04,FC
0032C:  DATA F8,00
0032E:  DATA 07,0F
00330:  DATA 08,0E
00332:  DATA 3C,3F
00334:  DATA 27,00
00336:  DATA 04,FC
00338:  DATA FC,44
0033A:  DATA C4,FC
0033C:  DATA 38,00
0033E:  DATA 08,0F
00340:  DATA 0F,00
00342:  DATA 00,0F
00344:  DATA 0F,00
00346:  DATA 18,3C
00348:  DATA 64,44
0034A:  DATA C4,9C
0034C:  DATA 18,00
0034E:  DATA 06,0E
00350:  DATA 08,08
00352:  DATA 08,0F
00354:  DATA 07,00
00356:  DATA 00,1C
00358:  DATA 0C,FC
0035A:  DATA FC,0C
0035C:  DATA 1C,00
0035E:  DATA 00,00
00360:  DATA 08,0F
00362:  DATA 0F,08
00364:  DATA 00,00
00366:  DATA FC,FC
00368:  DATA 00,00
0036A:  DATA 00,FC
0036C:  DATA FC,00
0036E:  DATA 07,0F
00370:  DATA 08,08
00372:  DATA 08,0F
00374:  DATA 07,00
00376:  DATA FC,FC
00378:  DATA 00,00
0037A:  DATA 00,FC
0037C:  DATA FC,00
0037E:  DATA 01,03
00380:  DATA 06,0C
00382:  DATA 06,03
00384:  DATA 01,00
00386:  DATA FC,FC
00388:  DATA 00,00
0038A:  DATA 00,FC
0038C:  DATA FC,00
0038E:  DATA 07,0F
00390:  DATA 0E,03
00392:  DATA 0E,0F
00394:  DATA 07,00
00396:  DATA 0C,3C
00398:  DATA F0,E0
0039A:  DATA F0,3C
0039C:  DATA 0C,00
0039E:  DATA 0C,0F
003A0:  DATA 03,01
003A2:  DATA 03,0F
003A4:  DATA 0C,00
003A6:  DATA 00,0C
003A8:  DATA 7C,C0
003AA:  DATA C0,7C
003AC:  DATA 3C,00
003AE:  DATA 00,00
003B0:  DATA 08,0F
003B2:  DATA 0F,08
003B4:  DATA 00,00
003B6:  DATA 1C,0C
003B8:  DATA 84,C4
003BA:  DATA 64,3C
003BC:  DATA 1C,00
003BE:  DATA 0E,0F
003C0:  DATA 09,08
003C2:  DATA 08,0C
003C4:  DATA 0E,00
003C6:  DATA 00,00
003C8:  DATA FC,FC
003CA:  DATA 04,04
003CC:  DATA 00,00
003CE:  DATA 00,00
003D0:  DATA 0F,0F
003D2:  DATA 08,08
003D4:  DATA 00,00
003D6:  DATA 38,70
003D8:  DATA E0,C0
003DA:  DATA 80,00
003DC:  DATA 00,00
003DE:  DATA 00,00
003E0:  DATA 00,01
003E2:  DATA 03,07
003E4:  DATA 0E,00
003E6:  DATA 00,00
003E8:  DATA 04,04
003EA:  DATA FC,FC
003EC:  DATA 00,00
003EE:  DATA 00,00
003F0:  DATA 08,08
003F2:  DATA 0F,0F
003F4:  DATA 00,00
003F6:  DATA 08,0C
003F8:  DATA 06,03
003FA:  DATA 06,0C
003FC:  DATA 08,00
003FE:  DATA 00,00
00400:  DATA 00,00
00402:  DATA 00,00
00404:  DATA 00,00
00406:  DATA 00,00
00408:  DATA 00,00
0040A:  DATA 00,00
0040C:  DATA 00,00
0040E:  DATA 20,20
00410:  DATA 20,20
00412:  DATA 20,20
00414:  DATA 20,20
00416:  DATA 00,00
00418:  DATA 03,07
0041A:  DATA 04,00
0041C:  DATA 00,00
0041E:  DATA 00,00
00420:  DATA 00,00
00422:  DATA 00,00
00424:  DATA 00,00
00426:  DATA 00,A0
00428:  DATA A0,A0
0042A:  DATA E0,C0
0042C:  DATA 00,00
0042E:  DATA 07,0F
00430:  DATA 08,08
00432:  DATA 07,0F
00434:  DATA 08,00
00436:  DATA 04,FC
00438:  DATA FC,20
0043A:  DATA 60,C0
0043C:  DATA 80,00
0043E:  DATA 00,0F
00440:  DATA 0F,08
00442:  DATA 08,0F
00444:  DATA 07,00
00446:  DATA C0,E0
00448:  DATA 20,20
0044A:  DATA 20,60
0044C:  DATA 40,00
0044E:  DATA 07,0F
00450:  DATA 08,08
00452:  DATA 08,0C
00454:  DATA 04,00
00456:  DATA 80,C0
00458:  DATA 60,24
0045A:  DATA FC,FC
0045C:  DATA 00,00
0045E:  DATA 07,0F
00460:  DATA 08,08
00462:  DATA 07,0F
00464:  DATA 08,00
00466:  DATA C0,E0
00468:  DATA A0,A0
0046A:  DATA A0,E0
0046C:  DATA C0,00
0046E:  DATA 07,0F
00470:  DATA 08,08
00472:  DATA 08,0C
00474:  DATA 04,00
00476:  DATA 40,F8
00478:  DATA FC,44
0047A:  DATA 0C,18
0047C:  DATA 00,00
0047E:  DATA 08,0F
00480:  DATA 0F,08
00482:  DATA 00,00
00484:  DATA 00,00
00486:  DATA C0,E0
00488:  DATA 20,20
0048A:  DATA C0,E0
0048C:  DATA 20,00
0048E:  DATA 27,6F
00490:  DATA 48,48
00492:  DATA 7F,3F
00494:  DATA 00,00
00496:  DATA 04,FC
00498:  DATA FC,40
0049A:  DATA 20,E0
0049C:  DATA C0,00
0049E:  DATA 08,0F
004A0:  DATA 0F,00
004A2:  DATA 00,0F
004A4:  DATA 0F,00
004A6:  DATA 00,00
004A8:  DATA 20,EC
004AA:  DATA EC,00
004AC:  DATA 00,00
004AE:  DATA 00,00
004B0:  DATA 08,0F
004B2:  DATA 0F,08
004B4:  DATA 00,00
004B6:  DATA 00,00
004B8:  DATA 00,00
004BA:  DATA 20,EC
004BC:  DATA EC,00
004BE:  DATA 00,30
004C0:  DATA 70,40
004C2:  DATA 40,7F
004C4:  DATA 3F,00
004C6:  DATA 04,FC
004C8:  DATA FC,80
004CA:  DATA C0,60
004CC:  DATA 20,00
004CE:  DATA 08,0F
004D0:  DATA 0F,01
004D2:  DATA 03,0E
004D4:  DATA 0C,00
004D6:  DATA 00,00
004D8:  DATA 04,FC
004DA:  DATA FC,00
004DC:  DATA 00,00
004DE:  DATA 00,00
004E0:  DATA 08,0F
004E2:  DATA 0F,08
004E4:  DATA 00,00
004E6:  DATA E0,E0
004E8:  DATA 60,C0
004EA:  DATA 60,E0
004EC:  DATA C0,00
004EE:  DATA 0F,0F
004F0:  DATA 00,07
004F2:  DATA 00,0F
004F4:  DATA 0F,00
004F6:  DATA 20,E0
004F8:  DATA C0,20
004FA:  DATA 20,E0
004FC:  DATA C0,00
004FE:  DATA 00,0F
00500:  DATA 0F,00
00502:  DATA 00,0F
00504:  DATA 0F,00
00506:  DATA C0,E0
00508:  DATA 20,20
0050A:  DATA 20,E0
0050C:  DATA C0,00
0050E:  DATA 07,0F
00510:  DATA 08,08
00512:  DATA 08,0F
00514:  DATA 07,00
00516:  DATA 20,E0
00518:  DATA C0,20
0051A:  DATA 20,E0
0051C:  DATA C0,00
0051E:  DATA 40,7F
00520:  DATA 7F,48
00522:  DATA 08,0F
00524:  DATA 07,00
00526:  DATA C0,E0
00528:  DATA 20,20
0052A:  DATA C0,E0
0052C:  DATA 20,00
0052E:  DATA 07,0F
00530:  DATA 08,48
00532:  DATA 7F,7F
00534:  DATA 40,00
00536:  DATA 20,E0
00538:  DATA C0,60
0053A:  DATA 20,E0
0053C:  DATA C0,00
0053E:  DATA 08,0F
00540:  DATA 0F,08
00542:  DATA 00,00
00544:  DATA 00,00
00546:  DATA 40,E0
00548:  DATA A0,20
0054A:  DATA 20,60
0054C:  DATA 40,00
0054E:  DATA 04,0C
00550:  DATA 09,09
00552:  DATA 0B,0E
00554:  DATA 04,00
00556:  DATA 20,20
00558:  DATA F8,FC
0055A:  DATA 20,20
0055C:  DATA 00,00
0055E:  DATA 00,00
00560:  DATA 07,0F
00562:  DATA 08,0C
00564:  DATA 04,00
00566:  DATA E0,E0
00568:  DATA 00,00
0056A:  DATA E0,E0
0056C:  DATA 00,00
0056E:  DATA 07,0F
00570:  DATA 08,08
00572:  DATA 07,0F
00574:  DATA 08,00
00576:  DATA 00,E0
00578:  DATA E0,00
0057A:  DATA 00,E0
0057C:  DATA E0,00
0057E:  DATA 00,03
00580:  DATA 07,0C
00582:  DATA 0C,07
00584:  DATA 03,00
00586:  DATA E0,E0
00588:  DATA 00,80
0058A:  DATA 00,E0
0058C:  DATA E0,00
0058E:  DATA 07,0F
00590:  DATA 0C,07
00592:  DATA 0C,0F
00594:  DATA 07,00
00596:  DATA 20,60
00598:  DATA C0,80
0059A:  DATA C0,60
0059C:  DATA 20,00
0059E:  DATA 08,0C
005A0:  DATA 07,03
005A2:  DATA 07,0C
005A4:  DATA 08,00
005A6:  DATA E0,E0
005A8:  DATA 00,00
005AA:  DATA 00,E0
005AC:  DATA E0,00
005AE:  DATA 47,4F
005B0:  DATA 48,48
005B2:  DATA 68,3F
005B4:  DATA 1F,00
005B6:  DATA 60,60
005B8:  DATA 20,A0
005BA:  DATA E0,60
005BC:  DATA 20,00
005BE:  DATA 0C,0E
005C0:  DATA 0B,09
005C2:  DATA 08,0C
005C4:  DATA 0C,00
005C6:  DATA 00,40
005C8:  DATA 40,F8
005CA:  DATA BC,04
005CC:  DATA 04,00
005CE:  DATA 00,00
005D0:  DATA 00,07
005D2:  DATA 0F,08
005D4:  DATA 08,00
005D6:  DATA 00,00
005D8:  DATA 00,BC
005DA:  DATA BC,00
005DC:  DATA 00,00
005DE:  DATA 00,00
005E0:  DATA 00,0F
005E2:  DATA 0F,00
005E4:  DATA 00,00
005E6:  DATA 00,04
005E8:  DATA 04,BC
005EA:  DATA F8,40
005EC:  DATA 40,00
005EE:  DATA 00,08
005F0:  DATA 08,0F
005F2:  DATA 07,00
005F4:  DATA 00,00
005F6:  DATA 43,48
005F8:  DATA 50,49
005FA:  DATA 44,3A
005FC:  DATA 25,30
005FE:  DATA 32,58
00600:  DATA 20,00
00602:  DATA 41,43
00604:  DATA 43,3A
00606:  DATA 25,30
00608:  DATA 32,58
0060A:  DATA 00,00
0060C:  DATA 4D,41
0060E:  DATA 47,3A
00610:  DATA 25,30
00612:  DATA 32,58
00614:  DATA 00,00
00616:  DATA 47,59
00618:  DATA 52,3A
0061A:  DATA 25,30
0061C:  DATA 32,58
0061E:  DATA 00,00
00620:  DATA 58,4C
00622:  DATA 3A,25
00624:  DATA 33,4C
00626:  DATA 64,20
00628:  DATA 0D,0A
0062A:  DATA 00,00
0062C:  DATA 59,4C
0062E:  DATA 3A,25
00630:  DATA 33,4C
00632:  DATA 64,20
00634:  DATA 0D,0A
00636:  DATA 00,00
00638:  DATA 5A,4C
0063A:  DATA 3A,25
0063C:  DATA 33,4C
0063E:  DATA 64,20
00640:  DATA 0D,0A
00642:  DATA 0D,0A
00644:  DATA 00,00
00646:  DATA 52,65
00648:  DATA 63,6F
0064A:  DATA 72,74
0064C:  DATA 3A,25
0064E:  DATA 34,4C
00650:  DATA 75,20
00652:  DATA 00,00
00654:  DATA 58,20
00656:  DATA 64,61
00658:  DATA 74,61
0065A:  DATA 20,20
0065C:  DATA 3A,20
0065E:  DATA 25,33
00660:  DATA 4C,64
00662:  DATA 20,00
00664:  DATA 59,20
00666:  DATA 64,61
00668:  DATA 74,61
0066A:  DATA 20,20
0066C:  DATA 3A,20
0066E:  DATA 25,33
00670:  DATA 4C,64
00672:  DATA 20,00
00674:  DATA 5A,20
00676:  DATA 64,61
00678:  DATA 74,61
0067A:  DATA 20,20
0067C:  DATA 3A,20
0067E:  DATA 25,33
00680:  DATA 4C,64
00682:  DATA 20,00
00684:  DATA 58,44
00686:  DATA 3A,25
00688:  DATA 33,4C
0068A:  DATA 64,20
0068C:  DATA 0D,0A
0068E:  DATA 00,00
00690:  DATA 59,44
00692:  DATA 3A,25
00694:  DATA 33,4C
00696:  DATA 64,20
00698:  DATA 0D,0A
0069A:  DATA 00,00
0069C:  DATA 5A,44
0069E:  DATA 3A,25
006A0:  DATA 33,4C
006A2:  DATA 64,20
006A4:  DATA 0D,0A
006A6:  DATA 0D,0A
006A8:  DATA 00,00
006AA:  DATA 4D,69
006AC:  DATA 78,61
006AE:  DATA 6C,69
006B0:  DATA 73,00
006B2:  DATA 50,61
006B4:  DATA 70,61
006B6:  DATA 69,6F
006B8:  DATA 61,6E
006BA:  DATA 6E,6F
006BC:  DATA 75,00
006BE:  DATA 32,30
006C0:  DATA 32,34
006C2:  DATA 00,00
006C4:  DATA 20,50
006C6:  DATA 52,4F
006C8:  DATA 4A,45
006CA:  DATA 43,54
006CC:  DATA 20,0D
006CE:  DATA 0A,00
006D0:  DATA 63,61
006D2:  DATA 73,65
006D4:  DATA 20,30
006D6:  DATA 3A,20
006D8:  DATA 43,6F
006DA:  DATA 6E,74
006DC:  DATA 69,6E
006DE:  DATA 75,6F
006E0:  DATA 75,73
006E2:  DATA 6C,79
006E4:  DATA 20,72
006E6:  DATA 65,61
006E8:  DATA 64,69
006EA:  DATA 6E,67
006EC:  DATA 20,73
006EE:  DATA 65,6E
006F0:  DATA 73,6F
006F2:  DATA 72,20
006F4:  DATA 64,61
006F6:  DATA 74,61
006F8:  DATA 0A,0D
006FA:  DATA 00,00
006FC:  DATA 63,61
006FE:  DATA 73,65
00700:  DATA 20,31
00702:  DATA 3A,20
00704:  DATA 53,74
00706:  DATA 61,74
00708:  DATA 65,20
0070A:  DATA 68,61
0070C:  DATA 73,20
0070E:  DATA 63,68
00710:  DATA 61,6E
00712:  DATA 67,65
00714:  DATA 64,2E
00716:  DATA 0A,0D
00718:  DATA 00,00
0071A:  DATA 50,41
0071C:  DATA 55,53
0071E:  DATA 45,00
00720:  DATA 63,61
00722:  DATA 73,65
00724:  DATA 20,32
00726:  DATA 3A,20
00728:  DATA 52,45
0072A:  DATA 41,44
0072C:  DATA 20,53
0072E:  DATA 41,56
00730:  DATA 45,20
00732:  DATA 44,41
00734:  DATA 54,41
00736:  DATA 20,0A
00738:  DATA 0D,00
0073A:  DATA 45,58
0073C:  DATA 50,4F
0073E:  DATA 52,54
00740:  DATA 20,44
00742:  DATA 41,54
00744:  DATA 41,3A
00746:  DATA 25,33
00748:  DATA 4C,75
0074A:  DATA 00,00
0074C:  DATA 58,4C
0074E:  DATA 3A,25
00750:  DATA 33,4C
00752:  DATA 64,20
00754:  DATA 0D,0A
00756:  DATA 00,00
00758:  DATA 59,4C
0075A:  DATA 3A,25
0075C:  DATA 33,4C
0075E:  DATA 64,20
00760:  DATA 0D,0A
00762:  DATA 00,00
00764:  DATA 5A,4C
00766:  DATA 3A,25
00768:  DATA 33,4C
0076A:  DATA 64,20
0076C:  DATA 0D,0A
0076E:  DATA 0D,0A
00770:  DATA 00,00
00772:  DATA 43,6F
00774:  DATA 75,6E
00776:  DATA 74,65
00778:  DATA 72,5F
0077A:  DATA 44,61
0077C:  DATA 74,61
0077E:  DATA 3A,20
00780:  DATA 25,34
00782:  DATA 4C,75
00784:  DATA 0A,0D
00786:  DATA 00,00
00788:  DATA 46,49
0078A:  DATA 4E,49
0078C:  DATA 53,48
0078E:  DATA 00,00
*
00B6E:  MOVFF  537,4EA
00B72:  MOVFF  536,4E9
00B76:  MOVLB  1D
00B78:  MOVF   x51,W
00B7A:  MOVWF  4EF
00B7C:  INCF   4E9,F
00B7E:  BTFSC  4D8.2
00B80:  INCF   4EA,F
00B82:  CLRF   4EF
00B84:  INCF   536,F
00B86:  BTFSC  4D8.2
00B88:  INCF   537,F
00B8A:  MOVLB  0
00B8C:  RETURN 0
00B8E:  TBLRD*+
00B90:  MOVF   4F5,F
00B92:  BZ    0BC2
00B94:  MOVFFL 4F6,1D3C
00B9A:  MOVFFL 4F7,1D3D
00BA0:  MOVFFL 4F8,1D3E
00BA6:  MOVFFL 4F5,1D51
00BAC:  RCALL  0B6E
00BAE:  MOVFFL 1D3C,4F6
00BB4:  MOVFFL 1D3D,4F7
00BBA:  MOVFFL 1D3E,4F8
00BC0:  BRA    0B8E
00BC2:  RETURN 0
00BC4:  MOVLB  1D
00BC6:  MOVF   x56,W
00BC8:  MULWF  x58
00BCA:  MOVFF  4F3,501
00BCE:  MOVFF  4F4,500
00BD2:  MULWF  x59
00BD4:  MOVF   4F3,W
00BD6:  ADDWF  500,F
00BD8:  MOVF   x57,W
00BDA:  MULWF  x58
00BDC:  MOVF   4F3,W
00BDE:  ADDWFC 500,W
00BE0:  MOVWF  502
00BE2:  MOVLB  0
00BE4:  RETURN 0
*
00D98:  TBLRD*+
00D9A:  MOVF   4F5,F
00D9C:  BZ    0DD0
00D9E:  MOVFFL 4F6,1D3C
00DA4:  MOVFFL 4F7,1D3D
00DAA:  MOVFFL 4F8,1D3E
00DB0:  MOVF   4F5,W
00DB2:  BTFSS  4B7.1
00DB4:  BRA    0DB2
00DB6:  MOVLB  2
00DB8:  MOVWF  xC9
00DBA:  MOVFFL 1D3C,4F6
00DC0:  MOVFFL 1D3D,4F7
00DC6:  MOVFFL 1D3E,4F8
00DCC:  MOVLB  0
00DCE:  BRA    0D98
00DD0:  RETURN 0
*
01014:  TBLRD*+
01016:  MOVFFL 4F6,1D49
0101C:  MOVFFL 4F7,1D4A
01022:  MOVFFL 4F8,1D4B
01028:  MOVFFL 4F5,1D51
0102E:  RCALL  0B6E
01030:  MOVFFL 1D49,4F6
01036:  MOVFFL 1D4A,4F7
0103C:  MOVFFL 1D4B,4F8
01042:  MOVLB  1D
01044:  DECFSZ x48,F
01046:  BRA    104A
01048:  BRA    104E
0104A:  MOVLB  0
0104C:  BRA    1014
0104E:  MOVLB  0
01050:  RETURN 0
01052:  MOVLB  1D
01054:  BTFSC  x41.7
01056:  BRA    107C
01058:  MOVLW  0F
0105A:  MOVWF  500
0105C:  SWAPF  x40,W
0105E:  ANDWF  500,F
01060:  MOVLW  0A
01062:  SUBWF  500,W
01064:  BC    106C
01066:  MOVLW  30
01068:  ADDWF  500,F
0106A:  BRA    1070
0106C:  MOVF   x41,W
0106E:  ADDWF  500,F
01070:  MOVFFL 500,1D51
01076:  MOVLB  0
01078:  RCALL  0B6E
0107A:  MOVLB  1D
0107C:  MOVLW  0F
0107E:  ANDWF  x40,F
01080:  MOVLW  0A
01082:  SUBWF  x40,W
01084:  BC    108A
01086:  MOVLW  30
01088:  BRA    108E
0108A:  BCF    x41.7
0108C:  MOVF   x41,W
0108E:  ADDWF  x40,F
01090:  MOVFFL 1D40,1D51
01096:  MOVLB  0
01098:  RCALL  0B6E
0109A:  RETURN 0
*
0127E:  TBLRD*+
01280:  MOVFFL 4F6,1D49
01286:  MOVFFL 4F7,1D4A
0128C:  MOVFFL 4F8,1D4B
01292:  MOVF   4F5,W
01294:  BTFSS  4B7.1
01296:  BRA    1294
01298:  MOVLB  2
0129A:  MOVWF  xC9
0129C:  MOVFFL 1D49,4F6
012A2:  MOVFFL 1D4A,4F7
012A8:  MOVFFL 1D4B,4F8
012AE:  MOVLB  1D
012B0:  DECFSZ x48,F
012B2:  BRA    12B6
012B4:  BRA    12BA
012B6:  MOVLB  0
012B8:  BRA    127E
012BA:  MOVLB  0
012BC:  RETURN 0
012BE:  MOVFFL 4EA,1D50
012C4:  MOVFFL 4E9,1D4F
012CA:  MOVLB  1D
012CC:  BTFSS  x49.7
012CE:  BRA    12E0
012D0:  BSF    x4F.7
012D2:  BTFSS  x4F.4
012D4:  INCF   x4F,F
012D6:  COMF   x48,F
012D8:  COMF   x49,F
012DA:  INCF   x48,F
012DC:  BTFSC  4D8.2
012DE:  INCF   x49,F
012E0:  SWAPF  x49,W
012E2:  IORLW  F0
012E4:  MOVWF  x4B
012E6:  ADDWF  x4B,F
012E8:  ADDLW  E2
012EA:  MOVWF  x4C
012EC:  ADDLW  32
012EE:  MOVWF  x4E
012F0:  MOVF   x49,W
012F2:  ANDLW  0F
012F4:  ADDWF  x4C,F
012F6:  ADDWF  x4C,F
012F8:  ADDWF  x4E,F
012FA:  ADDLW  E9
012FC:  MOVWF  x4D
012FE:  ADDWF  x4D,F
01300:  ADDWF  x4D,F
01302:  SWAPF  x48,W
01304:  ANDLW  0F
01306:  ADDWF  x4D,F
01308:  ADDWF  x4E,F
0130A:  RLCF   x4D,F
0130C:  RLCF   x4E,F
0130E:  COMF   x4E,F
01310:  RLCF   x4E,F
01312:  MOVF   x48,W
01314:  ANDLW  0F
01316:  ADDWF  x4E,F
01318:  RLCF   x4B,F
0131A:  MOVLW  07
0131C:  MOVWF  x4A
0131E:  MOVLW  0A
01320:  DECF   x4D,F
01322:  ADDWF  x4E,F
01324:  BNC   1320
01326:  DECF   x4C,F
01328:  ADDWF  x4D,F
0132A:  BNC   1326
0132C:  DECF   x4B,F
0132E:  ADDWF  x4C,F
01330:  BNC   132C
01332:  DECF   x4A,F
01334:  ADDWF  x4B,F
01336:  BNC   1332
01338:  MOVLW  1D
0133A:  MOVWF  4EA
0133C:  MOVLW  4A
0133E:  MOVWF  4E9
01340:  MOVLW  07
01342:  ANDWF  x4F,W
01344:  BCF    x4F.6
01346:  MOVF   4ED,F
01348:  ANDWF  x4F,W
0134A:  BNZ   135A
0134C:  BTFSC  x4F.4
0134E:  MOVF   4EE,F
01350:  BTFSC  x4F.4
01352:  BRA    135A
01354:  MOVLW  20
01356:  MOVWF  500
01358:  BRA    139C
0135A:  ADDWF  4E9,F
0135C:  MOVLW  00
0135E:  ADDWFC 4EA,F
01360:  MOVF   4E9,W
01362:  SUBLW  4E
01364:  BNZ   136E
01366:  MOVF   4EA,W
01368:  SUBLW  1D
0136A:  BNZ   136E
0136C:  BSF    x4F.6
0136E:  MOVF   4EF,W
01370:  MOVWF  500
01372:  BNZ   1384
01374:  BTFSC  x4F.6
01376:  BRA    1384
01378:  BTFSC  x4F.4
0137A:  BRA    13A8
0137C:  BTFSC  x4F.3
0137E:  BRA    1384
01380:  MOVLW  20
01382:  BRA    139A
01384:  BTFSS  x4F.7
01386:  BRA    1394
01388:  MOVLW  2D
0138A:  MOVWF  500
0138C:  MOVF   4ED,W
0138E:  BCF    x4F.6
01390:  BCF    x4F.7
01392:  BRA    139C
01394:  BSF    x4F.3
01396:  BCF    x4F.4
01398:  MOVLW  30
0139A:  ADDWF  500,F
0139C:  MOVF   500,W
0139E:  BTFSS  4B7.1
013A0:  BRA    139E
013A2:  MOVLB  2
013A4:  MOVWF  xC9
013A6:  MOVLB  1D
013A8:  MOVF   4EE,W
013AA:  BTFSS  x4F.6
013AC:  BRA    1360
013AE:  MOVLB  0
013B0:  RETURN 0
013B2:  MOVFFL 4EA,1D50
013B8:  MOVFFL 4E9,1D4F
013BE:  MOVLB  1D
013C0:  SWAPF  x49,W
013C2:  IORLW  F0
013C4:  MOVWF  x4B
013C6:  ADDWF  x4B,F
013C8:  ADDLW  E2
013CA:  MOVWF  x4C
013CC:  ADDLW  32
013CE:  MOVWF  x4E
013D0:  MOVF   x49,W
013D2:  ANDLW  0F
013D4:  ADDWF  x4C,F
013D6:  ADDWF  x4C,F
013D8:  ADDWF  x4E,F
013DA:  ADDLW  E9
013DC:  MOVWF  x4D
013DE:  ADDWF  x4D,F
013E0:  ADDWF  x4D,F
013E2:  SWAPF  x48,W
013E4:  ANDLW  0F
013E6:  ADDWF  x4D,F
013E8:  ADDWF  x4E,F
013EA:  RLCF   x4D,F
013EC:  RLCF   x4E,F
013EE:  COMF   x4E,F
013F0:  RLCF   x4E,F
013F2:  MOVF   x48,W
013F4:  ANDLW  0F
013F6:  ADDWF  x4E,F
013F8:  RLCF   x4B,F
013FA:  MOVLW  07
013FC:  MOVWF  x4A
013FE:  MOVLW  0A
01400:  DECF   x4D,F
01402:  ADDWF  x4E,F
01404:  BNC   1400
01406:  DECF   x4C,F
01408:  ADDWF  x4D,F
0140A:  BNC   1406
0140C:  DECF   x4B,F
0140E:  ADDWF  x4C,F
01410:  BNC   140C
01412:  DECF   x4A,F
01414:  ADDWF  x4B,F
01416:  BNC   1412
01418:  MOVLW  1D
0141A:  MOVWF  4EA
0141C:  MOVLW  4A
0141E:  MOVWF  4E9
01420:  MOVLW  07
01422:  ANDWF  x4F,W
01424:  BCF    x4F.6
01426:  ADDWF  4E9,F
01428:  MOVLW  00
0142A:  ADDWFC 4EA,F
0142C:  MOVF   4E9,W
0142E:  SUBLW  4E
01430:  BNZ   143A
01432:  MOVF   4EA,W
01434:  SUBLW  1D
01436:  BNZ   143A
01438:  BSF    x4F.6
0143A:  MOVF   4EF,W
0143C:  MOVWF  500
0143E:  BNZ   1450
01440:  BTFSC  x4F.6
01442:  BRA    1450
01444:  BTFSC  x4F.4
01446:  BRA    147E
01448:  BTFSC  x4F.3
0144A:  BRA    1450
0144C:  MOVLW  20
0144E:  BRA    1456
01450:  BSF    x4F.3
01452:  BCF    x4F.4
01454:  MOVLW  30
01456:  ADDWF  500,F
01458:  MOVFFL 4EA,1D49
0145E:  MOVFFL 4E9,1D48
01464:  MOVFFL 500,1D51
0146A:  MOVLB  0
0146C:  CALL   0B6E
01470:  MOVFFL 1D49,4EA
01476:  MOVFFL 1D48,4E9
0147C:  MOVLB  1D
0147E:  MOVF   4EE,W
01480:  BTFSS  x4F.6
01482:  BRA    142C
01484:  MOVLB  0
01486:  RETURN 0
*
01770:  MOVFFL 4EA,1D44
01776:  MOVFFL 4E9,1D43
0177C:  MOVLB  1D
0177E:  SWAPF  x3D,W
01780:  IORLW  F0
01782:  MOVWF  x3F
01784:  ADDWF  x3F,F
01786:  ADDLW  E2
01788:  MOVWF  x40
0178A:  ADDLW  32
0178C:  MOVWF  x42
0178E:  MOVF   x3D,W
01790:  ANDLW  0F
01792:  ADDWF  x40,F
01794:  ADDWF  x40,F
01796:  ADDWF  x42,F
01798:  ADDLW  E9
0179A:  MOVWF  x41
0179C:  ADDWF  x41,F
0179E:  ADDWF  x41,F
017A0:  SWAPF  x3C,W
017A2:  ANDLW  0F
017A4:  ADDWF  x41,F
017A6:  ADDWF  x42,F
017A8:  RLCF   x41,F
017AA:  RLCF   x42,F
017AC:  COMF   x42,F
017AE:  RLCF   x42,F
017B0:  MOVF   x3C,W
017B2:  ANDLW  0F
017B4:  ADDWF  x42,F
017B6:  RLCF   x3F,F
017B8:  MOVLW  07
017BA:  MOVWF  x3E
017BC:  MOVLW  0A
017BE:  DECF   x41,F
017C0:  ADDWF  x42,F
017C2:  BNC   17BE
017C4:  DECF   x40,F
017C6:  ADDWF  x41,F
017C8:  BNC   17C4
017CA:  DECF   x3F,F
017CC:  ADDWF  x40,F
017CE:  BNC   17CA
017D0:  DECF   x3E,F
017D2:  ADDWF  x3F,F
017D4:  BNC   17D0
017D6:  MOVLW  1D
017D8:  MOVWF  4EA
017DA:  MOVLW  3E
017DC:  MOVWF  4E9
017DE:  MOVLW  07
017E0:  ANDWF  x43,W
017E2:  BCF    x43.6
017E4:  ADDWF  4E9,F
017E6:  MOVLW  00
017E8:  ADDWFC 4EA,F
017EA:  MOVF   4E9,W
017EC:  SUBLW  42
017EE:  BNZ   17F8
017F0:  MOVF   4EA,W
017F2:  SUBLW  1D
017F4:  BNZ   17F8
017F6:  BSF    x43.6
017F8:  MOVF   4EF,W
017FA:  MOVWF  500
017FC:  BNZ   180E
017FE:  BTFSC  x43.6
01800:  BRA    180E
01802:  BTFSC  x43.4
01804:  BRA    1822
01806:  BTFSC  x43.3
01808:  BRA    180E
0180A:  MOVLW  20
0180C:  BRA    1814
0180E:  BSF    x43.3
01810:  BCF    x43.4
01812:  MOVLW  30
01814:  ADDWF  500,F
01816:  MOVF   500,W
01818:  BTFSS  4B7.1
0181A:  BRA    1818
0181C:  MOVLB  2
0181E:  MOVWF  xC9
01820:  MOVLB  1D
01822:  MOVF   4EE,W
01824:  BTFSS  x43.6
01826:  BRA    17EA
01828:  MOVLB  0
0182A:  GOTO   1D32 (RETURN)
.................... 
.................... #list
.................... 
.................... 
.................... #device  ADC=10
.................... 
.................... #FUSES   NOWDT , NOBROWNOUT               //No Watch Dog Timer
.................... 
.................... #FUSES RSTOSC_HFINTRC_64MHZ
.................... 
.................... #use delay(internal=32MHz)
*
0079E:  MOVLW  1D
007A0:  MOVWF  4EA
007A2:  MOVLW  48
007A4:  MOVWF  4E9
007A6:  MOVF   4EF,W
007A8:  BZ    07C4
007AA:  MOVLW  0A
007AC:  MOVWF  501
007AE:  CLRF   500
007B0:  DECFSZ 500,F
007B2:  BRA    07B0
007B4:  DECFSZ 501,F
007B6:  BRA    07AE
007B8:  MOVLW  5F
007BA:  MOVWF  500
007BC:  DECFSZ 500,F
007BE:  BRA    07BC
007C0:  DECFSZ 4EF,F
007C2:  BRA    07AA
007C4:  RETURN 0
.................... 
.................... #use i2c(master, scl=PIN_b1, sda=PIN_b2 ,FAST)   // i2c for oled lcd
007C6:  MOVLW  08
007C8:  MOVWF  501
007CA:  BRA    07CC
007CC:  BCF    4BF.1
007CE:  BCF    4C7.1
007D0:  BRA    07D2
007D2:  NOP   
007D4:  MOVLB  1D
007D6:  RLCF   x56,F
007D8:  BCF    4BF.2
007DA:  BTFSC  4D8.0
007DC:  BSF    4C7.2
007DE:  BTFSS  4D8.0
007E0:  BCF    4C7.2
007E2:  BSF    4C7.1
007E4:  BTFSS  4CF.1
007E6:  BRA    07E4
007E8:  DECFSZ 501,F
007EA:  BRA    07EE
007EC:  BRA    07F2
007EE:  MOVLB  0
007F0:  BRA    07CA
007F2:  BRA    07F4
007F4:  BCF    4BF.1
007F6:  BCF    4C7.1
007F8:  NOP   
007FA:  BSF    4C7.2
007FC:  BRA    07FE
007FE:  NOP   
00800:  BRA    0802
00802:  NOP   
00804:  BSF    4C7.1
00806:  BTFSS  4CF.1
00808:  BRA    0806
0080A:  CLRF   501
0080C:  BRA    080E
0080E:  NOP   
00810:  BTFSC  4CF.2
00812:  BSF    501.0
00814:  BCF    4BF.1
00816:  BCF    4C7.1
00818:  BCF    4BF.2
0081A:  BCF    4C7.2
0081C:  MOVLB  0
0081E:  RETURN 0
....................  
.................... #use rs232(uart3, baud=9600,xmit=PIN_a3,rcv=PIN_a4,bits=8, errors )  // WORK EXTERNAL COM3
.................... 
.................... 
.................... 
.................... 
.................... 
.................... 
.................... 
.................... 
.................... 
.................... #define LED     PIN_F3
.................... #define BUTTON   PIN_B4
.................... 
.................... unsigned int16  i;
.................... char master_mask[32];
.................... 
.................... unsigned int16  ptr_save;
.................... 
....................  
.................... 
.................... #include <OLED.c>
.................... #define SSD1306_LCDWIDTH 128
.................... #define SSD1306_LCDHEIGHT 64
.................... 
.................... unsigned char Contrast_level=0x8F;
.................... 
.................... #define Write_Address 0x78          /*slave addresses with write*/
.................... #define Read_Address  0x79           /*slave addresses with read*/
.................... 
.................... 
....................  
.................... const unsigned  ascii_table_8x16[94][16]={
.................... 0x00,0x00,0x00,0x00, 0x00,0x00,0x00,0x00, 0x00,0x00,0x00,0x00, 0x00,0x00,0x00,0x00, //- - 
.................... 0x00,0x00,0x38,0xFC, 0xFC,0x38,0x00,0x00, 0x00,0x00,0x00,0x0D, 0x0D,0x00,0x00,0x00, //-!-  
.................... 0x00,0x0E,0x1E,0x00, 0x00,0x1E,0x0E,0x00, 0x00,0x00,0x00,0x00, 0x00,0x00,0x00,0x00, //-"-
.................... 0x20,0xF8,0xF8,0x20, 0xF8,0xF8,0x20,0x00, 0x02,0x0F,0x0F,0x02, 0x0F,0x0F,0x02,0x00, //-#-
.................... 0x38,0x7C,0x44,0x47, 0x47,0xCC,0x98,0x00, 0x06,0x0C,0x08,0x38, 0x38,0x0F,0x07,0x00, //-$-
.................... 0x30,0x30,0x00,0x80, 0xC0,0x60,0x30,0x00, 0x0C,0x06,0x03,0x01, 0x00,0x0C,0x0C,0x00, //-%-
.................... 0x80,0xD8,0x7C,0xE4, 0xBC,0xD8,0x40,0x00, 0x07,0x0F,0x08,0x08, 0x07,0x0F,0x08,0x00, //-&-
.................... 0x00,0x10,0x1E,0x0E, 0x00,0x00,0x00,0x00, 0x00,0x00,0x00,0x00, 0x00,0x00,0x00,0x00, //-'-
.................... 0x00,0x00,0xF0,0xF8, 0x0C,0x04,0x00,0x00, 0x00,0x00,0x03,0x07, 0x0C,0x08,0x00,0x00, //-(-
.................... 0x00,0x00,0x04,0x0C, 0xF8,0xF0,0x00,0x00, 0x00,0x00,0x08,0x0C, 0x07,0x03,0x00,0x00, //-)-
.................... 0x80,0xA0,0xE0,0xC0, 0xC0,0xE0,0xA0,0x80, 0x00,0x02,0x03,0x01, 0x01,0x03,0x02,0x00, //-*-  
.................... 0x00,0x80,0x80,0xE0, 0xE0,0x80,0x80,0x00, 0x00,0x00,0x00,0x03, 0x03,0x00,0x00,0x00, //-+-
.................... 0x00,0x00,0x00,0x00, 0x00,0x00,0x00,0x00, 0x00,0x00,0x10,0x1E, 0x0E,0x00,0x00,0x00, //-,-
.................... 0x80,0x80,0x80,0x80, 0x80,0x80,0x80,0x00, 0x00,0x00,0x00,0x00, 0x00,0x00,0x00,0x00, //---
.................... 0x00,0x00,0x00,0x00, 0x00,0x00,0x00,0x00, 0x00,0x00,0x00,0x0C, 0x0C,0x00,0x00,0x00, //-.-
.................... 0x00,0x00,0x00,0x80, 0xC0,0x60,0x30,0x00, 0x0C,0x06,0x03,0x01, 0x00,0x00,0x00,0x00, //-/-
.................... 0xF8,0xF8,0x0C,0xC4, 0x0C,0xF8,0xF0,0x00, 0x03,0x07,0x0C,0x08, 0x0C,0x07,0x03,0x00, //-0-  
.................... 0x00,0x10,0x18,0xFC, 0xFC,0x00,0x00,0x00, 0x00,0x08,0x08,0x0F, 0x0F,0x08,0x08,0x00, //-1-
.................... 0x08,0x0C,0x84,0xC4, 0x64,0x3C,0x18,0x00, 0x0E,0x0F,0x09,0x08, 0x08,0x0C,0x0C,0x00, //-2-
.................... 0x08,0x0C,0x44,0x44, 0x44,0xFC,0xB8,0x00, 0x04,0x0C,0x08,0x08, 0x08,0x0F,0x07,0x00, //-3-
.................... 0xC0,0xE0,0xB0,0x98, 0xFC,0xFC,0x80,0x00, 0x00,0x00,0x00,0x08, 0x0F,0x0F,0x08,0x00, //-4-  
.................... 0x7C,0x7C,0x44,0x44, 0x44,0xC4,0x84,0x00, 0x04,0x0C,0x08,0x08, 0x08,0x0F,0x07,0x00, //-5-
.................... 0xF0,0xF8,0x4C,0x44, 0x44,0xC0,0x80,0x00, 0x07,0x0F,0x08,0x08, 0x08,0x0F,0x07,0x00, //-6-
.................... 0x0C,0x0C,0x04,0x84, 0xC4,0x7C,0x3C,0x00, 0x00,0x00,0x0F,0x0F, 0x00,0x00,0x00,0x00, //-7-
.................... 0xB8,0xFC,0x44,0x44, 0x44,0xFC,0xB8,0x00, 0x07,0x0F,0x08,0x08, 0x08,0x0F,0x07,0x00, //-8-
.................... 0x38,0x7C,0x44,0x44, 0x44,0xFC,0xF8,0x00, 0x00,0x08,0x08,0x08, 0x0C,0x07,0x03,0x00, //-9-
.................... 0x00,0x00,0x00,0x30, 0x30,0x00,0x00,0x00, 0x00,0x00,0x00,0x06, 0x06,0x00,0x00,0x00, //-:-
.................... 0x00,0x00,0x00,0x30, 0x30,0x00,0x00,0x00, 0x00,0x00,0x08,0x0E, 0x06,0x00,0x00,0x00, //-;-
.................... 0x00,0x80,0xC0,0x60, 0x30,0x18,0x08,0x00, 0x00,0x00,0x01,0x03, 0x06,0x0C,0x08,0x00, //-<-
.................... 0x00,0x20,0x20,0x20, 0x20,0x20,0x20,0x00, 0x00,0x01,0x01,0x01, 0x01,0x01,0x01,0x00, //-=-
.................... 0x00,0x08,0x18,0x30, 0x60,0xC0,0x80,0x00, 0x00,0x08,0x0C,0x06, 0x03,0x01,0x00,0x00, //->-  
.................... 0x18,0x1C,0x04,0xC4, 0xE4,0x3C,0x18,0x00, 0x00,0x00,0x00,0x0D, 0x0D,0x00,0x00,0x00, //-?-
.................... 0xF0,0xF0,0x08,0xC8, 0xC8,0xF8,0xF0,0x00, 0x07,0x0F,0x08,0x0B, 0x0B,0x0B,0x01,0x00, //-@-
.................... 0xE0,0xF0,0x98,0x8C, 0x98,0xF0,0xE0,0x00, 0x0F,0x0F,0x00,0x00, 0x00,0x0F,0x0F,0x00, //-A-  
.................... 0x04,0xFC,0xFC,0x44, 0x44,0xFC,0xB8,0x00, 0x08,0x0F,0x0F,0x08, 0x08,0x0F,0x07,0x00, //-B-
.................... 0xF0,0xF8,0x0C,0x04, 0x04,0x0C,0x18,0x00, 0x03,0x07,0x0C,0x08, 0x08,0x0C,0x06,0x00, //-C-
.................... 0x04,0xFC,0xFC,0x04, 0x0C,0xF8,0xF0,0x00, 0x08,0x0F,0x0F,0x08, 0x0C,0x07,0x03,0x00, //-D-
.................... 0x04,0xFC,0xFC,0x44, 0xE4,0x0C,0x1C,0x00, 0x08,0x0F,0x0F,0x08, 0x08,0x0C,0x0E,0x00, //-E-
.................... 0x04,0xFC,0xFC,0x44, 0xE4,0x0C,0x1C,0x00, 0x08,0x0F,0x0F,0x08, 0x00,0x00,0x00,0x00, //-F-
.................... 0xF0,0xF8,0x0C,0x84, 0x84,0x8C,0x98,0x00, 0x03,0x07,0x0C,0x08, 0x08,0x07,0x0F,0x00, //-G-
.................... 0xFC,0xFC,0x40,0x40, 0x40,0xFC,0xFC,0x00, 0x0F,0x0F,0x00,0x00, 0x00,0x0F,0x0F,0x00, //-H-  
.................... 0x00,0x00,0x04,0xFC, 0xFC,0x04,0x00,0x00, 0x00,0x00,0x08,0x0F, 0x0F,0x08,0x00,0x00, //-I-
.................... 0x00,0x00,0x00,0x04, 0xFC,0xFC,0x04,0x00, 0x07,0x0F,0x08,0x08, 0x0F,0x07,0x00,0x00, //-J-
.................... 0x04,0xFC,0xFC,0xC0, 0xE0,0x3C,0x1C,0x00, 0x08,0x0F,0x0F,0x00, 0x01,0x0F,0x0E,0x00, //-K-
.................... 0x04,0xFC,0xFC,0x04, 0x00,0x00,0x00,0x00, 0x08,0x0F,0x0F,0x08, 0x08,0x0C,0x0E,0x00, //-L-
.................... 0xFC,0xFC,0x38,0x70, 0x38,0xFC,0xFC,0x00, 0x0F,0x0F,0x00,0x00, 0x00,0x0F,0x0F,0x00, //-M-
.................... 0xFC,0xFC,0x38,0x70, 0xE0,0xFC,0xFC,0x00, 0x0F,0x0F,0x00,0x00, 0x00,0x0F,0x0F,0x00, //-N-
.................... 0xF8,0xFC,0x04,0x04, 0x04,0xFC,0xF8,0x00, 0x07,0x0F,0x08,0x08, 0x08,0x0F,0x07,0x00, //-O-
.................... 0x04,0xFC,0xFC,0x44, 0x44,0x7C,0x38,0x00, 0x08,0x0F,0x0F,0x08, 0x00,0x00,0x00,0x00, //-P
.................... 0xF8,0xFC,0x04,0x04, 0x04,0xFC,0xF8,0x00, 0x07,0x0F,0x08,0x0E, 0x3C,0x3F,0x27,0x00, //-Q-
.................... 0x04,0xFC,0xFC,0x44, 0xC4,0xFC,0x38,0x00, 0x08,0x0F,0x0F,0x00, 0x00,0x0F,0x0F,0x00, //-R-
.................... 0x18,0x3C,0x64,0x44, 0xC4,0x9C,0x18,0x00, 0x06,0x0E,0x08,0x08, 0x08,0x0F,0x07,0x00, //-S-
.................... 0x00,0x1C,0x0C,0xFC, 0xFC,0x0C,0x1C,0x00, 0x00,0x00,0x08,0x0F, 0x0F,0x08,0x00,0x00, //-T-
.................... 0xFC,0xFC,0x00,0x00, 0x00,0xFC,0xFC,0x00, 0x07,0x0F,0x08,0x08, 0x08,0x0F,0x07,0x00, //-U-
.................... 0xFC,0xFC,0x00,0x00, 0x00,0xFC,0xFC,0x00, 0x01,0x03,0x06,0x0C, 0x06,0x03,0x01,0x00, //-V-
.................... 0xFC,0xFC,0x00,0x00, 0x00,0xFC,0xFC,0x00, 0x07,0x0F,0x0E,0x03, 0x0E,0x0F,0x07,0x00, //-W-
.................... 0x0C,0x3C,0xF0,0xE0, 0xF0,0x3C,0x0C,0x00, 0x0C,0x0F,0x03,0x01, 0x03,0x0F,0x0C,0x00, //-X-
.................... 0x00,0x0C,0x7C,0xC0, 0xC0,0x7C,0x3C,0x00, 0x00,0x00,0x08,0x0F, 0x0F,0x08,0x00,0x00, //-Y-
.................... 0x1C,0x0C,0x84,0xC4, 0x64,0x3C,0x1C,0x00, 0x0E,0x0F,0x09,0x08, 0x08,0x0C,0x0E,0x00, //-Z-
.................... 0x00,0x00,0xFC,0xFC, 0x04,0x04,0x00,0x00, 0x00,0x00,0x0F,0x0F, 0x08,0x08,0x00,0x00, //-[-
.................... 0x38,0x70,0xE0,0xC0, 0x80,0x00,0x00,0x00, 0x00,0x00,0x00,0x01, 0x03,0x07,0x0E,0x00, //-\-
.................... 0x00,0x00,0x04,0x04, 0xFC,0xFC,0x00,0x00, 0x00,0x00,0x08,0x08, 0x0F,0x0F,0x00,0x00, //-]-
.................... 0x08,0x0C,0x06,0x03, 0x06,0x0C,0x08,0x00, 0x00,0x00,0x00,0x00, 0x00,0x00,0x00,0x00, //-^-
.................... 0x00,0x00,0x00,0x00, 0x00,0x00,0x00,0x00, 0x20,0x20,0x20,0x20, 0x20,0x20,0x20,0x20, //-_-
.................... 0x00,0x00,0x03,0x07, 0x04,0x00,0x00,0x00, 0x00,0x00,0x00,0x00, 0x00,0x00,0x00,0x00, //-`-
.................... 0x00,0xA0,0xA0,0xA0, 0xE0,0xC0,0x00,0x00, 0x07,0x0F,0x08,0x08, 0x07,0x0F,0x08,0x00, //-a-  
.................... 0x04,0xFC,0xFC,0x20, 0x60,0xC0,0x80,0x00, 0x00,0x0F,0x0F,0x08, 0x08,0x0F,0x07,0x00, //-b-
.................... 0xC0,0xE0,0x20,0x20, 0x20,0x60,0x40,0x00, 0x07,0x0F,0x08,0x08, 0x08,0x0C,0x04,0x00, //-c-
.................... 0x80,0xC0,0x60,0x24, 0xFC,0xFC,0x00,0x00, 0x07,0x0F,0x08,0x08, 0x07,0x0F,0x08,0x00, //-d-
.................... 0xC0,0xE0,0xA0,0xA0, 0xA0,0xE0,0xC0,0x00, 0x07,0x0F,0x08,0x08, 0x08,0x0C,0x04,0x00, //-e-
.................... 0x40,0xF8,0xFC,0x44, 0x0C,0x18,0x00,0x00, 0x08,0x0F,0x0F,0x08, 0x00,0x00,0x00,0x00, //-f-
.................... 0xC0,0xE0,0x20,0x20, 0xC0,0xE0,0x20,0x00, 0x27,0x6F,0x48,0x48, 0x7F,0x3F,0x00,0x00, //-g-
.................... 0x04,0xFC,0xFC,0x40, 0x20,0xE0,0xC0,0x00, 0x08,0x0F,0x0F,0x00, 0x00,0x0F,0x0F,0x00, //-h-
.................... 0x00,0x00,0x20,0xEC, 0xEC,0x00,0x00,0x00, 0x00,0x00,0x08,0x0F, 0x0F,0x08,0x00,0x00, //-i-
.................... 0x00,0x00,0x00,0x00, 0x20,0xEC,0xEC,0x00, 0x00,0x30,0x70,0x40, 0x40,0x7F,0x3F,0x00, //-j-
.................... 0x04,0xFC,0xFC,0x80, 0xC0,0x60,0x20,0x00, 0x08,0x0F,0x0F,0x01, 0x03,0x0E,0x0C,0x00, //-k-
.................... 0x00,0x00,0x04,0xFC, 0xFC,0x00,0x00,0x00, 0x00,0x00,0x08,0x0F, 0x0F,0x08,0x00,0x00, //-l-
.................... 0xE0,0xE0,0x60,0xC0, 0x60,0xE0,0xC0,0x00, 0x0F,0x0F,0x00,0x07, 0x00,0x0F,0x0F,0x00, //-m-
.................... 0x20,0xE0,0xC0,0x20, 0x20,0xE0,0xC0,0x00, 0x00,0x0F,0x0F,0x00, 0x00,0x0F,0x0F,0x00, //-n-
.................... 0xC0,0xE0,0x20,0x20, 0x20,0xE0,0xC0,0x00, 0x07,0x0F,0x08,0x08, 0x08,0x0F,0x07,0x00, //-o-
.................... 0x20,0xE0,0xC0,0x20, 0x20,0xE0,0xC0,0x00, 0x40,0x7F,0x7F,0x48, 0x08,0x0F,0x07,0x00, //-p-
.................... 0xC0,0xE0,0x20,0x20, 0xC0,0xE0,0x20,0x00, 0x07,0x0F,0x08,0x48, 0x7F,0x7F,0x40,0x00, //-q-
.................... 0x20,0xE0,0xC0,0x60, 0x20,0xE0,0xC0,0x00, 0x08,0x0F,0x0F,0x08, 0x00,0x00,0x00,0x00, //-r-
.................... 0x40,0xE0,0xA0,0x20, 0x20,0x60,0x40,0x00, 0x04,0x0C,0x09,0x09, 0x0B,0x0E,0x04,0x00, //-s-
.................... 0x20,0x20,0xF8,0xFC, 0x20,0x20,0x00,0x00, 0x00,0x00,0x07,0x0F, 0x08,0x0C,0x04,0x00, //-t-
.................... 0xE0,0xE0,0x00,0x00, 0xE0,0xE0,0x00,0x00, 0x07,0x0F,0x08,0x08, 0x07,0x0F,0x08,0x00, //-u-
.................... 0x00,0xE0,0xE0,0x00, 0x00,0xE0,0xE0,0x00, 0x00,0x03,0x07,0x0C, 0x0C,0x07,0x03,0x00, //-v-
.................... 0xE0,0xE0,0x00,0x80, 0x00,0xE0,0xE0,0x00, 0x07,0x0F,0x0C,0x07, 0x0C,0x0F,0x07,0x00, //-w-
.................... 0x20,0x60,0xC0,0x80, 0xC0,0x60,0x20,0x00, 0x08,0x0C,0x07,0x03, 0x07,0x0C,0x08,0x00, //-x-
.................... 0xE0,0xE0,0x00,0x00, 0x00,0xE0,0xE0,0x00, 0x47,0x4F,0x48,0x48, 0x68,0x3F,0x1F,0x00, //-y-
.................... 0x60,0x60,0x20,0xA0, 0xE0,0x60,0x20,0x00, 0x0C,0x0E,0x0B,0x09, 0x08,0x0C,0x0C,0x00, //-z- 
.................... 0x00,0x40,0x40,0xF8, 0xBC,0x04,0x04,0x00, 0x00,0x00,0x00,0x07, 0x0F,0x08,0x08,0x00, //-{-
.................... 0x00,0x00,0x00,0xBC, 0xBC,0x00,0x00,0x00, 0x00,0x00,0x00,0x0F, 0x0F,0x00,0x00,0x00, //-|-
.................... 0x00,0x04,0x04,0xBC, 0xF8,0x40,0x40,0x00, 0x00,0x08,0x08,0x0F, 0x07,0x00,0x00,0x00  //-}-
.................... };
.................... 
.................... 
.................... // Set page address 0~15
.................... void Set_Page_Address(unsigned char add)
.................... {  
....................    i2c_start();
*
00A28:  BSF    4C7.2
00A2A:  BRA    0A2C
00A2C:  BSF    4C7.1
00A2E:  BRA    0A30
00A30:  NOP   
00A32:  BCF    4BF.2
00A34:  BCF    4C7.2
00A36:  BRA    0A38
00A38:  BCF    4BF.1
00A3A:  BCF    4C7.1
....................    i2c_write(Write_Address);
00A3C:  MOVLW  78
00A3E:  MOVLB  1D
00A40:  MOVWF  x56
00A42:  MOVLB  0
00A44:  RCALL  07C6
....................    i2c_write(0x80);
00A46:  MOVLW  80
00A48:  MOVLB  1D
00A4A:  MOVWF  x56
00A4C:  MOVLB  0
00A4E:  RCALL  07C6
....................    add=0xb0|add;
00A50:  MOVLW  B0
00A52:  MOVLB  1D
00A54:  IORWF  x54,F
....................    i2c_write(add);
00A56:  MOVFFL 1D54,1D56
00A5C:  MOVLB  0
00A5E:  RCALL  07C6
....................    delay_us(10);
00A60:  MOVLW  1A
00A62:  MOVWF  500
00A64:  DECFSZ 500,F
00A66:  BRA    0A64
00A68:  NOP   
....................    i2c_stop();
00A6A:  BCF    4C7.2
00A6C:  NOP   
00A6E:  BSF    4C7.1
00A70:  BTFSS  4CF.1
00A72:  BRA    0A70
00A74:  BRA    0A76
00A76:  BRA    0A78
00A78:  NOP   
00A7A:  BSF    4C7.2
00A7C:  BRA    0A7E
....................    return;
00A7E:  RETURN 0
.................... }
.................... 
.................... void Set_Column_Address(unsigned char add)
.................... {   
....................    i2c_start();
00A80:  BSF    4C7.2
00A82:  BRA    0A84
00A84:  BSF    4C7.1
00A86:  BRA    0A88
00A88:  NOP   
00A8A:  BCF    4BF.2
00A8C:  BCF    4C7.2
00A8E:  BRA    0A90
00A90:  BCF    4BF.1
00A92:  BCF    4C7.1
....................    i2c_write(Write_Address);
00A94:  MOVLW  78
00A96:  MOVLB  1D
00A98:  MOVWF  x56
00A9A:  MOVLB  0
00A9C:  RCALL  07C6
....................    i2c_write(0x80);
00A9E:  MOVLW  80
00AA0:  MOVLB  1D
00AA2:  MOVWF  x56
00AA4:  MOVLB  0
00AA6:  RCALL  07C6
....................    i2c_write((0x10|(add>>4)));
00AA8:  MOVLB  1D
00AAA:  SWAPF  x54,W
00AAC:  MOVWF  500
00AAE:  MOVLW  0F
00AB0:  ANDWF  500,F
00AB2:  MOVF   500,W
00AB4:  IORLW  10
00AB6:  MOVWF  x55
00AB8:  MOVFFL 4E8,1D56
00ABE:  MOVLB  0
00AC0:  RCALL  07C6
....................    i2c_write(0x80);
00AC2:  MOVLW  80
00AC4:  MOVLB  1D
00AC6:  MOVWF  x56
00AC8:  MOVLB  0
00ACA:  RCALL  07C6
....................    i2c_write((0x0f&add));
00ACC:  MOVLB  1D
00ACE:  MOVF   x54,W
00AD0:  ANDLW  0F
00AD2:  MOVWF  x55
00AD4:  MOVFFL 4E8,1D56
00ADA:  MOVLB  0
00ADC:  RCALL  07C6
....................    i2c_stop();
00ADE:  BCF    4C7.2
00AE0:  NOP   
00AE2:  BSF    4C7.1
00AE4:  BTFSS  4CF.1
00AE6:  BRA    0AE4
00AE8:  BRA    0AEA
00AEA:  BRA    0AEC
00AEC:  NOP   
00AEE:  BSF    4C7.2
00AF0:  BRA    0AF2
....................    return;
00AF2:  RETURN 0
.................... }
.................... 
.................... 
.................... void Initial_1306(void)
.................... {
.................... 
....................    delay_ms(200);
*
00820:  MOVLW  C8
00822:  MOVLB  1D
00824:  MOVWF  x48
00826:  MOVLB  0
00828:  RCALL  079E
.................... 
....................    i2c_start();
0082A:  BSF    4C7.2
0082C:  BRA    082E
0082E:  BSF    4C7.1
00830:  BRA    0832
00832:  NOP   
00834:  BCF    4BF.2
00836:  BCF    4C7.2
00838:  BRA    083A
0083A:  BCF    4BF.1
0083C:  BCF    4C7.1
....................    i2c_write(Write_Address); //0x78
0083E:  MOVLW  78
00840:  MOVLB  1D
00842:  MOVWF  x56
00844:  MOVLB  0
00846:  RCALL  07C6
....................    i2c_write(0x80);
00848:  MOVLW  80
0084A:  MOVLB  1D
0084C:  MOVWF  x56
0084E:  MOVLB  0
00850:  RCALL  07C6
....................    i2c_write(0xae);//--turn off oled panel
00852:  MOVLW  AE
00854:  MOVLB  1D
00856:  MOVWF  x56
00858:  MOVLB  0
0085A:  RCALL  07C6
....................    i2c_write(0x80);
0085C:  MOVLW  80
0085E:  MOVLB  1D
00860:  MOVWF  x56
00862:  MOVLB  0
00864:  RCALL  07C6
.................... 
....................    i2c_write(0xd5);//--set display clock divide ratio/oscillator frequency
00866:  MOVLW  D5
00868:  MOVLB  1D
0086A:  MOVWF  x56
0086C:  MOVLB  0
0086E:  RCALL  07C6
....................    i2c_write(0x80);
00870:  MOVLW  80
00872:  MOVLB  1D
00874:  MOVWF  x56
00876:  MOVLB  0
00878:  RCALL  07C6
....................    i2c_write(0x80);//--set divide ratio
0087A:  MOVLW  80
0087C:  MOVLB  1D
0087E:  MOVWF  x56
00880:  MOVLB  0
00882:  RCALL  07C6
....................    i2c_write(0x80);
00884:  MOVLW  80
00886:  MOVLB  1D
00888:  MOVWF  x56
0088A:  MOVLB  0
0088C:  RCALL  07C6
.................... 
....................    i2c_write(0xa8);//--set multiplex ratio(1 to 64)
0088E:  MOVLW  A8
00890:  MOVLB  1D
00892:  MOVWF  x56
00894:  MOVLB  0
00896:  RCALL  07C6
....................    i2c_write(0x80);
00898:  MOVLW  80
0089A:  MOVLB  1D
0089C:  MOVWF  x56
0089E:  MOVLB  0
008A0:  RCALL  07C6
....................    i2c_write(0x3f);//--1/64 duty
008A2:  MOVLW  3F
008A4:  MOVLB  1D
008A6:  MOVWF  x56
008A8:  MOVLB  0
008AA:  RCALL  07C6
....................    i2c_write(0x80);
008AC:  MOVLW  80
008AE:  MOVLB  1D
008B0:  MOVWF  x56
008B2:  MOVLB  0
008B4:  RCALL  07C6
.................... 
....................    i2c_write(0xd3);//-set display offset
008B6:  MOVLW  D3
008B8:  MOVLB  1D
008BA:  MOVWF  x56
008BC:  MOVLB  0
008BE:  RCALL  07C6
....................    i2c_write(0x80);
008C0:  MOVLW  80
008C2:  MOVLB  1D
008C4:  MOVWF  x56
008C6:  MOVLB  0
008C8:  RCALL  07C6
....................    i2c_write(0x00);//-not offset
008CA:  MOVLB  1D
008CC:  CLRF   x56
008CE:  MOVLB  0
008D0:  RCALL  07C6
....................    i2c_write(0x80);
008D2:  MOVLW  80
008D4:  MOVLB  1D
008D6:  MOVWF  x56
008D8:  MOVLB  0
008DA:  RCALL  07C6
.................... 
....................    i2c_write(0x8d);//--set Charge Pump enable/disable
008DC:  MOVLW  8D
008DE:  MOVLB  1D
008E0:  MOVWF  x56
008E2:  MOVLB  0
008E4:  RCALL  07C6
....................    i2c_write(0x80);
008E6:  MOVLW  80
008E8:  MOVLB  1D
008EA:  MOVWF  x56
008EC:  MOVLB  0
008EE:  RCALL  07C6
....................    i2c_write(0x14);//--set(0x10) disable
008F0:  MOVLW  14
008F2:  MOVLB  1D
008F4:  MOVWF  x56
008F6:  MOVLB  0
008F8:  RCALL  07C6
....................    i2c_write(0x80);
008FA:  MOVLW  80
008FC:  MOVLB  1D
008FE:  MOVWF  x56
00900:  MOVLB  0
00902:  RCALL  07C6
.................... 
....................    i2c_write(0x40);//--set start line address
00904:  MOVLW  40
00906:  MOVLB  1D
00908:  MOVWF  x56
0090A:  MOVLB  0
0090C:  RCALL  07C6
....................    i2c_write(0x80);
0090E:  MOVLW  80
00910:  MOVLB  1D
00912:  MOVWF  x56
00914:  MOVLB  0
00916:  RCALL  07C6
.................... 
....................    i2c_write(0xa6);//--set normal display
00918:  MOVLW  A6
0091A:  MOVLB  1D
0091C:  MOVWF  x56
0091E:  MOVLB  0
00920:  RCALL  07C6
....................    i2c_write(0x80);
00922:  MOVLW  80
00924:  MOVLB  1D
00926:  MOVWF  x56
00928:  MOVLB  0
0092A:  RCALL  07C6
.................... 
....................    i2c_write(0xa4);//Disable Entire Display On
0092C:  MOVLW  A4
0092E:  MOVLB  1D
00930:  MOVWF  x56
00932:  MOVLB  0
00934:  RCALL  07C6
....................    i2c_write(0x80);
00936:  MOVLW  80
00938:  MOVLB  1D
0093A:  MOVWF  x56
0093C:  MOVLB  0
0093E:  RCALL  07C6
.................... 
....................    i2c_write(0xa1);//--set segment re-map 128 to 0
00940:  MOVLW  A1
00942:  MOVLB  1D
00944:  MOVWF  x56
00946:  MOVLB  0
00948:  RCALL  07C6
....................    i2c_write(0x80);
0094A:  MOVLW  80
0094C:  MOVLB  1D
0094E:  MOVWF  x56
00950:  MOVLB  0
00952:  RCALL  07C6
.................... 
....................    i2c_write(0xC8);//--Set COM Output Scan Direction 64 to 0
00954:  MOVLW  C8
00956:  MOVLB  1D
00958:  MOVWF  x56
0095A:  MOVLB  0
0095C:  RCALL  07C6
....................    i2c_write(0x80);
0095E:  MOVLW  80
00960:  MOVLB  1D
00962:  MOVWF  x56
00964:  MOVLB  0
00966:  RCALL  07C6
....................    
....................    i2c_write(0xda);//--set com pins hardware configuration
00968:  MOVLW  DA
0096A:  MOVLB  1D
0096C:  MOVWF  x56
0096E:  MOVLB  0
00970:  RCALL  07C6
....................    i2c_write(0x80);
00972:  MOVLW  80
00974:  MOVLB  1D
00976:  MOVWF  x56
00978:  MOVLB  0
0097A:  RCALL  07C6
....................    i2c_write(0x12);
0097C:  MOVLW  12
0097E:  MOVLB  1D
00980:  MOVWF  x56
00982:  MOVLB  0
00984:  RCALL  07C6
....................    i2c_write(0x80);
00986:  MOVLW  80
00988:  MOVLB  1D
0098A:  MOVWF  x56
0098C:  MOVLB  0
0098E:  RCALL  07C6
.................... 
....................    i2c_write(0x81);//--set contrast control register
00990:  MOVLW  81
00992:  MOVLB  1D
00994:  MOVWF  x56
00996:  MOVLB  0
00998:  RCALL  07C6
....................    i2c_write(0x80);
0099A:  MOVLW  80
0099C:  MOVLB  1D
0099E:  MOVWF  x56
009A0:  MOVLB  0
009A2:  RCALL  07C6
....................    i2c_write(Contrast_level);
009A4:  MOVFFL 529,1D56
009AA:  RCALL  07C6
....................    i2c_write(0x80);
009AC:  MOVLW  80
009AE:  MOVLB  1D
009B0:  MOVWF  x56
009B2:  MOVLB  0
009B4:  RCALL  07C6
.................... 
....................    i2c_write(0xd9);//--set pre-charge period
009B6:  MOVLW  D9
009B8:  MOVLB  1D
009BA:  MOVWF  x56
009BC:  MOVLB  0
009BE:  RCALL  07C6
....................    i2c_write(0x80);
009C0:  MOVLW  80
009C2:  MOVLB  1D
009C4:  MOVWF  x56
009C6:  MOVLB  0
009C8:  RCALL  07C6
....................    i2c_write(0xf1);
009CA:  MOVLW  F1
009CC:  MOVLB  1D
009CE:  MOVWF  x56
009D0:  MOVLB  0
009D2:  RCALL  07C6
....................    i2c_write(0x80);
009D4:  MOVLW  80
009D6:  MOVLB  1D
009D8:  MOVWF  x56
009DA:  MOVLB  0
009DC:  RCALL  07C6
.................... 
....................    i2c_write(0xdb);//--set vcomh
009DE:  MOVLW  DB
009E0:  MOVLB  1D
009E2:  MOVWF  x56
009E4:  MOVLB  0
009E6:  RCALL  07C6
....................    i2c_write(0x80);
009E8:  MOVLW  80
009EA:  MOVLB  1D
009EC:  MOVWF  x56
009EE:  MOVLB  0
009F0:  RCALL  07C6
....................    i2c_write(0x40);
009F2:  MOVLW  40
009F4:  MOVLB  1D
009F6:  MOVWF  x56
009F8:  MOVLB  0
009FA:  RCALL  07C6
.................... 
....................    i2c_write(0x80);
009FC:  MOVLW  80
009FE:  MOVLB  1D
00A00:  MOVWF  x56
00A02:  MOVLB  0
00A04:  RCALL  07C6
.................... 
....................    i2c_write(0xaf);       //--turn on oled panel
00A06:  MOVLW  AF
00A08:  MOVLB  1D
00A0A:  MOVWF  x56
00A0C:  MOVLB  0
00A0E:  RCALL  07C6
.................... 
....................    i2c_stop();
00A10:  BCF    4C7.2
00A12:  NOP   
00A14:  BSF    4C7.1
00A16:  BTFSS  4CF.1
00A18:  BRA    0A16
00A1A:  BRA    0A1C
00A1C:  BRA    0A1E
00A1E:  NOP   
00A20:  BSF    4C7.2
00A22:  BRA    0A24
00A24:  GOTO   18CE (RETURN)
.................... }
....................  
....................  
.................... void lcd_clrscroled(unsigned char nn)
.................... {
....................     unsigned char i,j;
....................     
....................     for(i=0;i<8;i++)
*
00AF4:  MOVLB  1D
00AF6:  CLRF   x3D
00AF8:  MOVF   x3D,W
00AFA:  SUBLW  07
00AFC:  BNC   0B6A
....................    {
....................       Set_Page_Address(i);
00AFE:  MOVFFL 1D3D,1D54
00B04:  MOVLB  0
00B06:  RCALL  0A28
....................       Set_Column_Address(0x00);
00B08:  MOVLB  1D
00B0A:  CLRF   x54
00B0C:  MOVLB  0
00B0E:  RCALL  0A80
....................       i2c_start();
00B10:  BSF    4C7.2
00B12:  BRA    0B14
00B14:  BSF    4C7.1
00B16:  BRA    0B18
00B18:  NOP   
00B1A:  BCF    4BF.2
00B1C:  BCF    4C7.2
00B1E:  BRA    0B20
00B20:  BCF    4BF.1
00B22:  BCF    4C7.1
....................       i2c_write(Write_Address);
00B24:  MOVLW  78
00B26:  MOVLB  1D
00B28:  MOVWF  x56
00B2A:  MOVLB  0
00B2C:  RCALL  07C6
....................       i2c_write(0x40);
00B2E:  MOVLW  40
00B30:  MOVLB  1D
00B32:  MOVWF  x56
00B34:  MOVLB  0
00B36:  RCALL  07C6
....................       for(j=0;j<128;j++)
00B38:  MOVLB  1D
00B3A:  CLRF   x3E
00B3C:  MOVF   x3E,W
00B3E:  SUBLW  7F
00B40:  BNC   0B52
....................       {
....................             
....................             i2c_write(nn);
00B42:  MOVFFL 1D3C,1D56
00B48:  MOVLB  0
00B4A:  RCALL  07C6
00B4C:  MOVLB  1D
00B4E:  INCF   x3E,F
00B50:  BRA    0B3C
....................          
....................       }
....................        i2c_stop();
00B52:  BCF    4C7.2
00B54:  NOP   
00B56:  BSF    4C7.1
00B58:  BTFSS  4CF.1
00B5A:  BRA    0B58
00B5C:  BRA    0B5E
00B5E:  BRA    0B60
00B60:  NOP   
00B62:  BSF    4C7.2
00B64:  BRA    0B66
00B66:  INCF   x3D,F
00B68:  BRA    0AF8
....................    }
....................     return;
00B6A:  MOVLB  0
00B6C:  RETURN 0
.................... }
.................... 
.................... 
.................... void Show_font2l(unsigned char xp,unsigned char yp,unsigned char ch)
.................... {
....................      char i,i1;
....................        
....................          i1 = xp*8; 
*
00BE6:  MOVLB  1D
00BE8:  MOVF   x4F,W
00BEA:  MULLW  08
00BEC:  MOVF   4F3,W
00BEE:  MOVWF  x53
....................    
....................          Set_Page_Address(yp);
00BF0:  MOVFFL 1D50,1D54
00BF6:  MOVLB  0
00BF8:  RCALL  0A28
....................          Set_Column_Address(i1);
00BFA:  MOVFFL 1D53,1D54
00C00:  RCALL  0A80
....................          
....................          i2c_start();   
00C02:  BSF    4C7.2
00C04:  BRA    0C06
00C06:  BSF    4C7.1
00C08:  BRA    0C0A
00C0A:  NOP   
00C0C:  BCF    4BF.2
00C0E:  BCF    4C7.2
00C10:  BRA    0C12
00C12:  BCF    4BF.1
00C14:  BCF    4C7.1
....................          i2c_write(Write_Address);
00C16:  MOVLW  78
00C18:  MOVLB  1D
00C1A:  MOVWF  x56
00C1C:  MOVLB  0
00C1E:  RCALL  07C6
....................          i2c_write(0x40);   
00C20:  MOVLW  40
00C22:  MOVLB  1D
00C24:  MOVWF  x56
00C26:  MOVLB  0
00C28:  RCALL  07C6
....................    
....................      for(i=0; i<8; i++) {
00C2A:  MOVLB  1D
00C2C:  CLRF   x52
00C2E:  MOVF   x52,W
00C30:  SUBLW  07
00C32:  BNC   0C86
....................         i2c_write(ascii_table_8x16[ch-32][i]); 
00C34:  MOVLW  20
00C36:  SUBWF  x51,W
00C38:  MOVWF  x55
00C3A:  CLRF   x57
00C3C:  MOVFFL 4E8,1D56
00C42:  CLRF   x59
00C44:  MOVLW  10
00C46:  MOVWF  x58
00C48:  MOVLB  0
00C4A:  RCALL  0BC4
00C4C:  MOVFFL 502,1D55
00C52:  MOVFFL 501,1D54
00C58:  MOVLB  1D
00C5A:  MOVF   x52,W
00C5C:  ADDWF  x54,W
00C5E:  MOVWF  501
00C60:  MOVLW  00
00C62:  ADDWFC x55,W
00C64:  MOVWF  503
00C66:  MOVF   501,W
00C68:  MOVFF  503,4F7
00C6C:  MOVLB  0
00C6E:  CALL   0004
00C72:  MOVLB  1D
00C74:  MOVWF  x54
00C76:  MOVFFL 4E8,1D56
00C7C:  MOVLB  0
00C7E:  RCALL  07C6
00C80:  MOVLB  1D
00C82:  INCF   x52,F
00C84:  BRA    0C2E
....................      } 
....................           yp++;
00C86:  INCF   x50,F
....................           i1 = xp*8;
00C88:  MOVF   x4F,W
00C8A:  MULLW  08
00C8C:  MOVF   4F3,W
00C8E:  MOVWF  x53
....................          
....................           Set_Page_Address(yp);
00C90:  MOVFFL 1D50,1D54
00C96:  MOVLB  0
00C98:  RCALL  0A28
....................           Set_Column_Address(i1);
00C9A:  MOVFFL 1D53,1D54
00CA0:  RCALL  0A80
....................           
....................           i2c_start();   
00CA2:  BSF    4C7.2
00CA4:  BRA    0CA6
00CA6:  BSF    4C7.1
00CA8:  BRA    0CAA
00CAA:  NOP   
00CAC:  BTFSS  4CF.1
00CAE:  BRA    0CAC
00CB0:  BCF    4BF.2
00CB2:  BCF    4C7.2
00CB4:  BRA    0CB6
00CB6:  BCF    4BF.1
00CB8:  BCF    4C7.1
....................           i2c_write(Write_Address);
00CBA:  MOVLW  78
00CBC:  MOVLB  1D
00CBE:  MOVWF  x56
00CC0:  MOVLB  0
00CC2:  RCALL  07C6
....................           i2c_write(0x40);        
00CC4:  MOVLW  40
00CC6:  MOVLB  1D
00CC8:  MOVWF  x56
00CCA:  MOVLB  0
00CCC:  RCALL  07C6
....................    
....................      for(i=8; i<16; i++) {
00CCE:  MOVLW  08
00CD0:  MOVLB  1D
00CD2:  MOVWF  x52
00CD4:  MOVF   x52,W
00CD6:  SUBLW  0F
00CD8:  BNC   0D2C
....................         i2c_write(ascii_table_8x16[ch-32][i]); 
00CDA:  MOVLW  20
00CDC:  SUBWF  x51,W
00CDE:  MOVWF  x55
00CE0:  CLRF   x57
00CE2:  MOVFFL 4E8,1D56
00CE8:  CLRF   x59
00CEA:  MOVLW  10
00CEC:  MOVWF  x58
00CEE:  MOVLB  0
00CF0:  RCALL  0BC4
00CF2:  MOVFFL 502,1D55
00CF8:  MOVFFL 501,1D54
00CFE:  MOVLB  1D
00D00:  MOVF   x52,W
00D02:  ADDWF  x54,W
00D04:  MOVWF  501
00D06:  MOVLW  00
00D08:  ADDWFC x55,W
00D0A:  MOVWF  503
00D0C:  MOVF   501,W
00D0E:  MOVFF  503,4F7
00D12:  MOVLB  0
00D14:  CALL   0004
00D18:  MOVLB  1D
00D1A:  MOVWF  x54
00D1C:  MOVFFL 4E8,1D56
00D22:  MOVLB  0
00D24:  RCALL  07C6
00D26:  MOVLB  1D
00D28:  INCF   x52,F
00D2A:  BRA    0CD4
....................      }  
....................   
....................       i2c_stop();   
00D2C:  BCF    4C7.2
00D2E:  NOP   
00D30:  BSF    4C7.1
00D32:  BTFSS  4CF.1
00D34:  BRA    0D32
00D36:  BRA    0D38
00D38:  BRA    0D3A
00D3A:  NOP   
00D3C:  BSF    4C7.2
00D3E:  BRA    0D40
....................     return;
00D40:  MOVLB  0
00D42:  GOTO   0D74 (RETURN)
.................... }
.................... 
.................... 
.................... void Show_String8x16(unsigned char *Data_Pointer, unsigned char b, unsigned char c)
.................... {
....................    unsigned char *Src_Pointer;
.................... 
....................     Src_Pointer=Data_Pointer;
00D46:  MOVFFL 1D49,1D4D
00D4C:  MOVFFL 1D48,1D4C
.................... 
....................    while(true)
....................    {
....................       Show_font2l(b,c,*Src_Pointer);
00D52:  MOVFFL 1D4D,4EA
00D58:  MOVLB  1D
00D5A:  MOVF   x4C,W
00D5C:  MOVWF  4E9
00D5E:  MOVFFL 4EF,1D51
00D64:  MOVFFL 1D4A,1D4F
00D6A:  MOVFFL 1D4B,1D50
00D70:  MOVLB  0
00D72:  BRA    0BE6
....................       Src_Pointer++;
00D74:  MOVLB  1D
00D76:  INCF   x4C,F
00D78:  BTFSC  4D8.2
00D7A:  INCF   x4D,F
....................        b++;
00D7C:  INCF   x4A,F
....................       if(*Src_Pointer == 0) break;
00D7E:  MOVFFL 1D4D,4EA
00D84:  MOVF   x4C,W
00D86:  MOVWF  4E9
00D88:  MOVF   4EF,F
00D8A:  BTFSC  4D8.2
00D8C:  BRA    0D94
00D8E:  MOVLB  0
00D90:  BRA    0D52
00D92:  MOVLB  1D
....................    }  
00D94:  MOVLB  0
00D96:  RETURN 0
.................... }  
.................... 
.................... #include <BNP055.c>
.................... #use i2c(master, scl=PIN_c3, sda=PIN_c4,stream = BNO)
*
00DD2:  MOVLW  08
00DD4:  MOVWF  501
00DD6:  MOVLW  0A
00DD8:  MOVWF  500
00DDA:  DECFSZ 500,F
00DDC:  BRA    0DDA
00DDE:  BCF    4C0.3
00DE0:  BCF    4C8.3
00DE2:  MOVLW  0B
00DE4:  MOVWF  500
00DE6:  DECFSZ 500,F
00DE8:  BRA    0DE6
00DEA:  MOVLB  1D
00DEC:  RLCF   x48,F
00DEE:  BCF    4C0.4
00DF0:  BTFSC  4D8.0
00DF2:  BSF    4C8.4
00DF4:  BTFSS  4D8.0
00DF6:  BCF    4C8.4
00DF8:  BSF    4C8.3
00DFA:  BTFSS  4D0.3
00DFC:  BRA    0DFA
00DFE:  DECFSZ 501,F
00E00:  BRA    0E04
00E02:  BRA    0E08
00E04:  MOVLB  0
00E06:  BRA    0DD6
00E08:  MOVLW  0A
00E0A:  MOVWF  500
00E0C:  DECFSZ 500,F
00E0E:  BRA    0E0C
00E10:  BCF    4C0.3
00E12:  BCF    4C8.3
00E14:  NOP   
00E16:  BSF    4C8.4
00E18:  MOVLW  0B
00E1A:  MOVWF  500
00E1C:  DECFSZ 500,F
00E1E:  BRA    0E1C
00E20:  MOVLW  0B
00E22:  MOVWF  500
00E24:  DECFSZ 500,F
00E26:  BRA    0E24
00E28:  BSF    4C8.3
00E2A:  BTFSS  4D0.3
00E2C:  BRA    0E2A
00E2E:  CLRF   501
00E30:  MOVLW  0B
00E32:  MOVWF  500
00E34:  DECFSZ 500,F
00E36:  BRA    0E34
00E38:  BTFSC  4D0.4
00E3A:  BSF    501.0
00E3C:  BCF    4C0.3
00E3E:  BCF    4C8.3
00E40:  BCF    4C0.4
00E42:  BCF    4C8.4
00E44:  MOVLB  0
00E46:  RETURN 0
*
00FA8:  MOVLW  08
00FAA:  MOVLB  1D
00FAC:  MOVWF  x49
00FAE:  MOVFFL 500,1D4A
00FB4:  BSF    4C8.4
00FB6:  MOVLW  0B
00FB8:  MOVWF  500
00FBA:  DECFSZ 500,F
00FBC:  BRA    0FBA
00FBE:  BSF    4C8.3
00FC0:  BTFSS  4D0.3
00FC2:  BRA    0FC0
00FC4:  BTFSC  4D0.4
00FC6:  BSF    4D8.0
00FC8:  BTFSS  4D0.4
00FCA:  BCF    4D8.0
00FCC:  RLCF   501,F
00FCE:  MOVLW  0A
00FD0:  MOVWF  500
00FD2:  DECFSZ 500,F
00FD4:  BRA    0FD2
00FD6:  BCF    4C8.3
00FD8:  BCF    4C0.3
00FDA:  DECFSZ x49,F
00FDC:  BRA    0FB4
00FDE:  BSF    4C8.4
00FE0:  MOVLW  0B
00FE2:  MOVWF  500
00FE4:  DECFSZ 500,F
00FE6:  BRA    0FE4
00FE8:  BCF    4C0.4
00FEA:  MOVF   x4A,W
00FEC:  BTFSS  4D8.2
00FEE:  BCF    4C8.4
00FF0:  NOP   
00FF2:  BSF    4C8.3
00FF4:  BTFSS  4D0.3
00FF6:  BRA    0FF4
00FF8:  MOVLW  0A
00FFA:  MOVWF  500
00FFC:  DECFSZ 500,F
00FFE:  BRA    0FFC
01000:  BCF    4C0.3
01002:  BCF    4C8.3
01004:  MOVLW  0B
01006:  MOVWF  500
01008:  DECFSZ 500,F
0100A:  BRA    1008
0100C:  BCF    4C0.4
0100E:  BCF    4C8.4
01010:  MOVLB  0
01012:  RETURN 0
.................... 
.................... /** BNO055 Address A **/
.................... #define BNO055_ADDRESS_A 0x28
.................... /** BNO055 ID **/
.................... #define BNO055_ID 0xA0
.................... 
.................... 
.................... /* Linear acceleration data registers */
.................... #define BNO055_LINEAR_ACCEL_DATA_X_LSB_ADDR = 0X28
.................... #define BNO055_LINEAR_ACCEL_DATA_X_MSB_ADDR = 0X29
.................... #define BNO055_LINEAR_ACCEL_DATA_Y_LSB_ADDR = 0X2A
.................... #define BNO055_LINEAR_ACCEL_DATA_Y_MSB_ADDR = 0X2B
.................... #define BNO055_LINEAR_ACCEL_DATA_Z_LSB_ADDR = 0X2C
.................... #define BNO055_LINEAR_ACCEL_DATA_Z_MSB_ADDR = 0X2D
.................... 
.................... 
.................... #define  ACC_DATA_X_LSB 0x08
.................... #define  ACC_DATA_X_MSB 0x09
.................... #define  ACC_DATA_Y_LSB 0x0A
.................... #define  ACC_DATA_Y_MSB 0x0B
.................... #define  ACC_DATA_Z_LSB 0x0C
.................... #define  ACC_DATA_Z_MSB 0x0D
.................... 
.................... 
.................... int16 bno_x,bno_y,bno_z,bno_xD,bno_yD,bno_zD;
.................... 
.................... void BNO055_Config()
.................... {   i2c_start(BNO);
*
00E48:  BSF    4C8.4
00E4A:  MOVLW  0A
00E4C:  MOVWF  500
00E4E:  DECFSZ 500,F
00E50:  BRA    0E4E
00E52:  BSF    4C8.3
00E54:  MOVLW  0B
00E56:  MOVWF  500
00E58:  DECFSZ 500,F
00E5A:  BRA    0E58
00E5C:  BCF    4C0.4
00E5E:  BCF    4C8.4
00E60:  MOVLW  0A
00E62:  MOVWF  500
00E64:  DECFSZ 500,F
00E66:  BRA    0E64
00E68:  BCF    4C0.3
00E6A:  BCF    4C8.3
....................     i2c_write(BNO, BNO055_ADDRESS_A <<1); //WRITE MODE
00E6C:  MOVLW  50
00E6E:  MOVLB  1D
00E70:  MOVWF  x48
00E72:  MOVLB  0
00E74:  RCALL  0DD2
....................     i2c_write(BNO, 0x3D); // BNO055_OPR_MODE_ADDR
00E76:  MOVLW  3D
00E78:  MOVLB  1D
00E7A:  MOVWF  x48
00E7C:  MOVLB  0
00E7E:  RCALL  0DD2
....................     i2c_write(BNO, 0x00); // Config mode
00E80:  MOVLB  1D
00E82:  CLRF   x48
00E84:  MOVLB  0
00E86:  RCALL  0DD2
....................     i2c_stop(BNO);
00E88:  BCF    4C8.4
00E8A:  NOP   
00E8C:  BSF    4C8.3
00E8E:  BTFSS  4D0.3
00E90:  BRA    0E8E
00E92:  MOVLW  0A
00E94:  MOVWF  500
00E96:  DECFSZ 500,F
00E98:  BRA    0E96
00E9A:  BRA    0E9C
00E9C:  NOP   
00E9E:  BSF    4C8.4
00EA0:  MOVLW  0A
00EA2:  MOVWF  500
00EA4:  DECFSZ 500,F
00EA6:  BRA    0EA4
....................     delay_ms(500);
00EA8:  MOVLW  02
00EAA:  MOVLB  1D
00EAC:  MOVWF  x3C
00EAE:  MOVLW  FA
00EB0:  MOVWF  x48
00EB2:  MOVLB  0
00EB4:  RCALL  079E
00EB6:  MOVLB  1D
00EB8:  DECFSZ x3C,F
00EBA:  BRA    0EAE
.................... 
....................     // Set to normal power mode
....................     i2c_start(BNO);
00EBC:  BSF    4C8.4
00EBE:  MOVLW  0A
00EC0:  MOVWF  500
00EC2:  DECFSZ 500,F
00EC4:  BRA    0EC2
00EC6:  BSF    4C8.3
00EC8:  MOVLW  0B
00ECA:  MOVWF  500
00ECC:  DECFSZ 500,F
00ECE:  BRA    0ECC
00ED0:  BCF    4C0.4
00ED2:  BCF    4C8.4
00ED4:  MOVLW  0A
00ED6:  MOVWF  500
00ED8:  DECFSZ 500,F
00EDA:  BRA    0ED8
00EDC:  BCF    4C0.3
00EDE:  BCF    4C8.3
....................     i2c_write(BNO, BNO055_ADDRESS_A <<1); //WRITE MODE
00EE0:  MOVLW  50
00EE2:  MOVWF  x48
00EE4:  MOVLB  0
00EE6:  RCALL  0DD2
....................     i2c_write(BNO, 0x3E); // BNO055_PWR_MODE_ADDR
00EE8:  MOVLW  3E
00EEA:  MOVLB  1D
00EEC:  MOVWF  x48
00EEE:  MOVLB  0
00EF0:  RCALL  0DD2
....................     i2c_write(BNO, 0x00); // Normal mode
00EF2:  MOVLB  1D
00EF4:  CLRF   x48
00EF6:  MOVLB  0
00EF8:  RCALL  0DD2
....................     i2c_stop(BNO);
00EFA:  BCF    4C8.4
00EFC:  NOP   
00EFE:  BSF    4C8.3
00F00:  BTFSS  4D0.3
00F02:  BRA    0F00
00F04:  MOVLW  0A
00F06:  MOVWF  500
00F08:  DECFSZ 500,F
00F0A:  BRA    0F08
00F0C:  BRA    0F0E
00F0E:  NOP   
00F10:  BSF    4C8.4
00F12:  MOVLW  0A
00F14:  MOVWF  500
00F16:  DECFSZ 500,F
00F18:  BRA    0F16
....................     delay_ms(500);
00F1A:  MOVLW  02
00F1C:  MOVLB  1D
00F1E:  MOVWF  x3C
00F20:  MOVLW  FA
00F22:  MOVWF  x48
00F24:  MOVLB  0
00F26:  RCALL  079E
00F28:  MOVLB  1D
00F2A:  DECFSZ x3C,F
00F2C:  BRA    0F20
.................... 
....................     // Set to NDOF mode
....................     i2c_start(BNO);
00F2E:  BSF    4C8.4
00F30:  MOVLW  0A
00F32:  MOVWF  500
00F34:  DECFSZ 500,F
00F36:  BRA    0F34
00F38:  BSF    4C8.3
00F3A:  MOVLW  0B
00F3C:  MOVWF  500
00F3E:  DECFSZ 500,F
00F40:  BRA    0F3E
00F42:  BCF    4C0.4
00F44:  BCF    4C8.4
00F46:  MOVLW  0A
00F48:  MOVWF  500
00F4A:  DECFSZ 500,F
00F4C:  BRA    0F4A
00F4E:  BCF    4C0.3
00F50:  BCF    4C8.3
....................     i2c_write(BNO, BNO055_ADDRESS_A <<1); //WRITE MODE
00F52:  MOVLW  50
00F54:  MOVWF  x48
00F56:  MOVLB  0
00F58:  RCALL  0DD2
....................     i2c_write(BNO, 0x3D); // BNO055_OPR_MODE_ADDR
00F5A:  MOVLW  3D
00F5C:  MOVLB  1D
00F5E:  MOVWF  x48
00F60:  MOVLB  0
00F62:  RCALL  0DD2
....................     i2c_write(BNO, 0x0C); // NDOF mode
00F64:  MOVLW  0C
00F66:  MOVLB  1D
00F68:  MOVWF  x48
00F6A:  MOVLB  0
00F6C:  RCALL  0DD2
....................     i2c_stop(BNO);
00F6E:  BCF    4C8.4
00F70:  NOP   
00F72:  BSF    4C8.3
00F74:  BTFSS  4D0.3
00F76:  BRA    0F74
00F78:  MOVLW  0A
00F7A:  MOVWF  500
00F7C:  DECFSZ 500,F
00F7E:  BRA    0F7C
00F80:  BRA    0F82
00F82:  NOP   
00F84:  BSF    4C8.4
00F86:  MOVLW  0A
00F88:  MOVWF  500
00F8A:  DECFSZ 500,F
00F8C:  BRA    0F8A
....................     delay_ms(500);  
00F8E:  MOVLW  02
00F90:  MOVLB  1D
00F92:  MOVWF  x3C
00F94:  MOVLW  FA
00F96:  MOVWF  x48
00F98:  MOVLB  0
00F9A:  RCALL  079E
00F9C:  MOVLB  1D
00F9E:  DECFSZ x3C,F
00FA0:  BRA    0F94
00FA2:  MOVLB  0
00FA4:  GOTO   19A0 (RETURN)
.................... }
.................... 
.................... void BNO055_read_register_id()   
.................... {
....................     unsigned char gyr_id, acc_id, chip_id, mag_id;
.................... 
....................     i2c_start(BNO);
*
0109C:  BSF    4C8.4
0109E:  MOVLW  0A
010A0:  MOVWF  500
010A2:  DECFSZ 500,F
010A4:  BRA    10A2
010A6:  BSF    4C8.3
010A8:  MOVLW  0B
010AA:  MOVWF  500
010AC:  DECFSZ 500,F
010AE:  BRA    10AC
010B0:  BCF    4C0.4
010B2:  BCF    4C8.4
010B4:  MOVLW  0A
010B6:  MOVWF  500
010B8:  DECFSZ 500,F
010BA:  BRA    10B8
010BC:  BCF    4C0.3
010BE:  BCF    4C8.3
....................     i2c_write(BNO, BNO055_ADDRESS_A << 1); // Write mode
010C0:  MOVLW  50
010C2:  MOVLB  1D
010C4:  MOVWF  x48
010C6:  MOVLB  0
010C8:  RCALL  0DD2
....................     i2c_write(BNO, 0x00); // Start address for ID registers
010CA:  MOVLB  1D
010CC:  CLRF   x48
010CE:  MOVLB  0
010D0:  RCALL  0DD2
....................     i2c_start(BNO);
010D2:  BSF    4C8.4
010D4:  MOVLW  0A
010D6:  MOVWF  500
010D8:  DECFSZ 500,F
010DA:  BRA    10D8
010DC:  BSF    4C8.3
010DE:  MOVLW  0B
010E0:  MOVWF  500
010E2:  DECFSZ 500,F
010E4:  BRA    10E2
010E6:  BTFSS  4D0.3
010E8:  BRA    10E6
010EA:  BCF    4C0.4
010EC:  BCF    4C8.4
010EE:  MOVLW  0A
010F0:  MOVWF  500
010F2:  DECFSZ 500,F
010F4:  BRA    10F2
010F6:  BCF    4C0.3
010F8:  BCF    4C8.3
....................     i2c_write(BNO, (BNO055_ADDRESS_A << 1) | 1); // Read mode
010FA:  MOVLW  51
010FC:  MOVLB  1D
010FE:  MOVWF  x48
01100:  MOVLB  0
01102:  RCALL  0DD2
.................... 
....................     chip_id = i2c_read(BNO, 1); // Read CHIP_ID with ACK
01104:  MOVLW  01
01106:  MOVWF  500
01108:  RCALL  0FA8
0110A:  MOVFFL 501,1D3E
....................     acc_id = i2c_read(BNO, 1);// Read ACC_ID with ACK
01110:  MOVLW  01
01112:  MOVWF  500
01114:  RCALL  0FA8
01116:  MOVFFL 501,1D3D
....................     mag_id = i2c_read(BNO, 1); //read MAG_ID with ACK
0111C:  MOVLW  01
0111E:  MOVWF  500
01120:  RCALL  0FA8
01122:  MOVFFL 501,1D3F
....................     gyr_id = i2c_read(BNO, 0);  // Read GYR_ID with NACK
01128:  CLRF   500
0112A:  RCALL  0FA8
0112C:  MOVFFL 501,1D3C
.................... 
....................    i2c_stop(BNO);
01132:  BCF    4C8.4
01134:  NOP   
01136:  BSF    4C8.3
01138:  BTFSS  4D0.3
0113A:  BRA    1138
0113C:  MOVLW  0A
0113E:  MOVWF  500
01140:  DECFSZ 500,F
01142:  BRA    1140
01144:  BRA    1146
01146:  NOP   
01148:  BSF    4C8.4
0114A:  MOVLW  0A
0114C:  MOVWF  500
0114E:  DECFSZ 500,F
01150:  BRA    114E
.................... 
....................  
....................    sprintf(master_mask,"CHPID:%02X ",chip_id); 
01152:  MOVLW  05
01154:  MOVWF  537
01156:  MOVLW  07
01158:  MOVWF  536
0115A:  MOVLW  F6
0115C:  MOVWF  4F6
0115E:  MOVLW  05
01160:  MOVWF  4F7
01162:  MOVLW  00
01164:  MOVWF  4F8
01166:  MOVLW  06
01168:  MOVLB  1D
0116A:  MOVWF  x48
0116C:  MOVLB  0
0116E:  RCALL  1014
01170:  MOVFFL 1D3E,1D40
01176:  MOVLW  37
01178:  MOVLB  1D
0117A:  MOVWF  x41
0117C:  MOVLB  0
0117E:  RCALL  1052
01180:  MOVLW  20
01182:  MOVLB  1D
01184:  MOVWF  x51
01186:  MOVLB  0
01188:  RCALL  0B6E
....................     Show_String8x16(master_mask,0,0);
0118A:  MOVLW  05
0118C:  MOVLB  1D
0118E:  MOVWF  x49
01190:  MOVLW  07
01192:  MOVWF  x48
01194:  CLRF   x4A
01196:  CLRF   x4B
01198:  MOVLB  0
0119A:  RCALL  0D46
....................    
....................    sprintf(master_mask,"ACC:%02X",acc_id); 
0119C:  MOVLW  05
0119E:  MOVWF  537
011A0:  MOVLW  07
011A2:  MOVWF  536
011A4:  MOVLW  02
011A6:  MOVWF  4F6
011A8:  MOVLW  06
011AA:  MOVWF  4F7
011AC:  MOVLW  00
011AE:  MOVWF  4F8
011B0:  MOVLW  04
011B2:  MOVLB  1D
011B4:  MOVWF  x48
011B6:  MOVLB  0
011B8:  RCALL  1014
011BA:  MOVFFL 1D3D,1D40
011C0:  MOVLW  37
011C2:  MOVLB  1D
011C4:  MOVWF  x41
011C6:  MOVLB  0
011C8:  RCALL  1052
....................     Show_String8x16(master_mask,0,2);
011CA:  MOVLW  05
011CC:  MOVLB  1D
011CE:  MOVWF  x49
011D0:  MOVLW  07
011D2:  MOVWF  x48
011D4:  CLRF   x4A
011D6:  MOVLW  02
011D8:  MOVWF  x4B
011DA:  MOVLB  0
011DC:  RCALL  0D46
....................    
....................    sprintf(master_mask,"MAG:%02X",mag_id);
011DE:  MOVLW  05
011E0:  MOVWF  537
011E2:  MOVLW  07
011E4:  MOVWF  536
011E6:  MOVLW  0C
011E8:  MOVWF  4F6
011EA:  MOVLW  06
011EC:  MOVWF  4F7
011EE:  MOVLW  00
011F0:  MOVWF  4F8
011F2:  MOVLW  04
011F4:  MOVLB  1D
011F6:  MOVWF  x48
011F8:  MOVLB  0
011FA:  RCALL  1014
011FC:  MOVFFL 1D3F,1D40
01202:  MOVLW  37
01204:  MOVLB  1D
01206:  MOVWF  x41
01208:  MOVLB  0
0120A:  RCALL  1052
....................     Show_String8x16(master_mask,0,4); 
0120C:  MOVLW  05
0120E:  MOVLB  1D
01210:  MOVWF  x49
01212:  MOVLW  07
01214:  MOVWF  x48
01216:  CLRF   x4A
01218:  MOVLW  04
0121A:  MOVWF  x4B
0121C:  MOVLB  0
0121E:  RCALL  0D46
....................    
.................... 
....................    sprintf(master_mask,"GYR:%02X",gyr_id);
01220:  MOVLW  05
01222:  MOVWF  537
01224:  MOVLW  07
01226:  MOVWF  536
01228:  MOVLW  16
0122A:  MOVWF  4F6
0122C:  MOVLW  06
0122E:  MOVWF  4F7
01230:  MOVLW  00
01232:  MOVWF  4F8
01234:  MOVLW  04
01236:  MOVLB  1D
01238:  MOVWF  x48
0123A:  MOVLB  0
0123C:  RCALL  1014
0123E:  MOVFFL 1D3C,1D40
01244:  MOVLW  37
01246:  MOVLB  1D
01248:  MOVWF  x41
0124A:  MOVLB  0
0124C:  RCALL  1052
....................     Show_String8x16(master_mask,0,6);
0124E:  MOVLW  05
01250:  MOVLB  1D
01252:  MOVWF  x49
01254:  MOVLW  07
01256:  MOVWF  x48
01258:  CLRF   x4A
0125A:  MOVLW  06
0125C:  MOVWF  x4B
0125E:  MOVLB  0
01260:  RCALL  0D46
....................     
....................    
....................    delay_ms(4000);
01262:  MOVLW  10
01264:  MOVLB  1D
01266:  MOVWF  x40
01268:  MOVLW  FA
0126A:  MOVWF  x48
0126C:  MOVLB  0
0126E:  CALL   079E
01272:  MOVLB  1D
01274:  DECFSZ x40,F
01276:  BRA    1268
01278:  MOVLB  0
0127A:  GOTO   19BC (RETURN)
....................    
.................... }
.................... 
.................... 
.................... void BNO055_read_linear_accel()
.................... {
....................     unsigned char x_lsb, x_msb, y_lsb, y_msb, z_lsb, z_msb;
....................     signed  int16 x1, y1, z1;
....................     
.................... 
....................     // Set start address for reading linear acceleration data
....................     i2c_start(BNO);
*
01488:  BSF    4C8.4
0148A:  MOVLW  0A
0148C:  MOVWF  500
0148E:  DECFSZ 500,F
01490:  BRA    148E
01492:  BSF    4C8.3
01494:  MOVLW  0B
01496:  MOVWF  500
01498:  DECFSZ 500,F
0149A:  BRA    1498
0149C:  BCF    4C0.4
0149E:  BCF    4C8.4
014A0:  MOVLW  0A
014A2:  MOVWF  500
014A4:  DECFSZ 500,F
014A6:  BRA    14A4
014A8:  BCF    4C0.3
014AA:  BCF    4C8.3
....................     i2c_write(BNO, BNO055_ADDRESS_A << 1); // Write mode
014AC:  MOVLW  50
014AE:  MOVLB  1D
014B0:  MOVWF  x48
014B2:  MOVLB  0
014B4:  RCALL  0DD2
....................     i2c_write(BNO, 0x28); // Start address
014B6:  MOVLW  28
014B8:  MOVLB  1D
014BA:  MOVWF  x48
014BC:  MOVLB  0
014BE:  RCALL  0DD2
....................     i2c_start(BNO);
014C0:  BSF    4C8.4
014C2:  MOVLW  0A
014C4:  MOVWF  500
014C6:  DECFSZ 500,F
014C8:  BRA    14C6
014CA:  BSF    4C8.3
014CC:  MOVLW  0B
014CE:  MOVWF  500
014D0:  DECFSZ 500,F
014D2:  BRA    14D0
014D4:  BTFSS  4D0.3
014D6:  BRA    14D4
014D8:  BCF    4C0.4
014DA:  BCF    4C8.4
014DC:  MOVLW  0A
014DE:  MOVWF  500
014E0:  DECFSZ 500,F
014E2:  BRA    14E0
014E4:  BCF    4C0.3
014E6:  BCF    4C8.3
....................     i2c_write(BNO, (BNO055_ADDRESS_A << 1) | 1); // Read mode
014E8:  MOVLW  51
014EA:  MOVLB  1D
014EC:  MOVWF  x48
014EE:  MOVLB  0
014F0:  RCALL  0DD2
.................... 
....................     // Read the linear acceleration data
....................     x_lsb = i2c_read(BNO, 1); // Read X LSB with ACK
014F2:  MOVLW  01
014F4:  MOVWF  500
014F6:  RCALL  0FA8
014F8:  MOVFFL 501,1D3C
....................     x_msb = i2c_read(BNO, 1); // Read X MSB with ACK
014FE:  MOVLW  01
01500:  MOVWF  500
01502:  RCALL  0FA8
01504:  MOVFFL 501,1D3D
....................     y_lsb = i2c_read(BNO, 1); // Read Y LSB with ACK
0150A:  MOVLW  01
0150C:  MOVWF  500
0150E:  RCALL  0FA8
01510:  MOVFFL 501,1D3E
....................     y_msb = i2c_read(BNO, 1); // Read Y MSB with ACK
01516:  MOVLW  01
01518:  MOVWF  500
0151A:  RCALL  0FA8
0151C:  MOVFFL 501,1D3F
....................     z_lsb = i2c_read(BNO, 1); // Read Z LSB with ACK
01522:  MOVLW  01
01524:  MOVWF  500
01526:  RCALL  0FA8
01528:  MOVFFL 501,1D40
....................     z_msb = i2c_read(BNO, 0); // Read Z MSB with NACK
0152E:  CLRF   500
01530:  RCALL  0FA8
01532:  MOVFFL 501,1D41
.................... 
....................     i2c_stop(BNO);
01538:  BCF    4C8.4
0153A:  NOP   
0153C:  BSF    4C8.3
0153E:  BTFSS  4D0.3
01540:  BRA    153E
01542:  MOVLW  0A
01544:  MOVWF  500
01546:  DECFSZ 500,F
01548:  BRA    1546
0154A:  BRA    154C
0154C:  NOP   
0154E:  BSF    4C8.4
01550:  MOVLW  0A
01552:  MOVWF  500
01554:  DECFSZ 500,F
01556:  BRA    1554
.................... 
....................     // Combine MSB and LSB
....................     x1 = ((int16)x_msb << 8) | x_lsb;
01558:  MOVLB  1D
0155A:  CLRF   x49
0155C:  MOVFFL 1D3D,1D48
01562:  MOVFFL 1D48,1D49
01568:  CLRF   x48
0156A:  MOVF   x48,W
0156C:  IORWF  x3C,W
0156E:  MOVWF  500
01570:  MOVF   x49,W
01572:  MOVWF  503
01574:  MOVF   500,W
01576:  MOVWF  x42
01578:  MOVFFL 503,1D43
....................     y1 = ((int16)y_msb << 8) | y_lsb;
0157E:  CLRF   x49
01580:  MOVFFL 1D3F,1D48
01586:  MOVFFL 1D48,1D49
0158C:  CLRF   x48
0158E:  MOVF   x48,W
01590:  IORWF  x3E,W
01592:  MOVWF  500
01594:  MOVF   x49,W
01596:  MOVWF  503
01598:  MOVF   500,W
0159A:  MOVWF  x44
0159C:  MOVFFL 503,1D45
....................     z1 = ((int16)z_msb << 8) | z_lsb;
015A2:  CLRF   x49
015A4:  MOVFFL 1D41,1D48
015AA:  MOVFFL 1D48,1D49
015B0:  CLRF   x48
015B2:  MOVF   x48,W
015B4:  IORWF  x40,W
015B6:  MOVWF  500
015B8:  MOVF   x49,W
015BA:  MOVWF  503
015BC:  MOVF   500,W
015BE:  MOVWF  x46
015C0:  MOVFFL 503,1D47
.................... 
....................   
....................      bno_x= x1;
015C6:  MOVFFL 1D43,52B
015CC:  MOVFFL 1D42,52A
....................      bno_y= y1;
015D2:  MOVFFL 1D45,52D
015D8:  MOVFFL 1D44,52C
....................      bno_z= z1;
015DE:  MOVFFL 1D47,52F
015E4:  MOVFFL 1D46,52E
....................     
....................     printf("XL:%3Ld \r\n",x1);
015EA:  MOVLW  20
015EC:  MOVWF  4F6
015EE:  MOVLW  06
015F0:  MOVWF  4F7
015F2:  MOVLW  00
015F4:  MOVWF  4F8
015F6:  MOVLW  03
015F8:  MOVWF  x48
015FA:  MOVLB  0
015FC:  RCALL  127E
015FE:  MOVLW  03
01600:  MOVWF  4E9
01602:  MOVFFL 1D43,1D49
01608:  MOVFFL 1D42,1D48
0160E:  RCALL  12BE
01610:  MOVLW  27
01612:  MOVWF  4F6
01614:  MOVLW  06
01616:  MOVWF  4F7
01618:  MOVLW  00
0161A:  MOVWF  4F8
0161C:  MOVLW  03
0161E:  MOVLB  1D
01620:  MOVWF  x48
01622:  MOVLB  0
01624:  RCALL  127E
....................     printf("YL:%3Ld \r\n",y1);
01626:  MOVLW  2C
01628:  MOVWF  4F6
0162A:  MOVLW  06
0162C:  MOVWF  4F7
0162E:  MOVLW  00
01630:  MOVWF  4F8
01632:  MOVLW  03
01634:  MOVLB  1D
01636:  MOVWF  x48
01638:  MOVLB  0
0163A:  RCALL  127E
0163C:  MOVLW  03
0163E:  MOVWF  4E9
01640:  MOVFFL 1D45,1D49
01646:  MOVFFL 1D44,1D48
0164C:  RCALL  12BE
0164E:  MOVLW  33
01650:  MOVWF  4F6
01652:  MOVLW  06
01654:  MOVWF  4F7
01656:  MOVLW  00
01658:  MOVWF  4F8
0165A:  MOVLW  03
0165C:  MOVLB  1D
0165E:  MOVWF  x48
01660:  MOVLB  0
01662:  RCALL  127E
....................     printf("ZL:%3Ld \r\n\r\n",z1);
01664:  MOVLW  38
01666:  MOVWF  4F6
01668:  MOVLW  06
0166A:  MOVWF  4F7
0166C:  MOVLW  00
0166E:  MOVWF  4F8
01670:  MOVLW  03
01672:  MOVLB  1D
01674:  MOVWF  x48
01676:  MOVLB  0
01678:  RCALL  127E
0167A:  MOVLW  03
0167C:  MOVWF  4E9
0167E:  MOVFFL 1D47,1D49
01684:  MOVFFL 1D46,1D48
0168A:  RCALL  12BE
0168C:  MOVLW  3F
0168E:  MOVWF  4F6
01690:  MOVLW  06
01692:  MOVWF  4F7
01694:  MOVLW  00
01696:  MOVWF  4F8
01698:  MOVLW  05
0169A:  MOVLB  1D
0169C:  MOVWF  x48
0169E:  MOVLB  0
016A0:  RCALL  127E
....................     
.................... 
....................     sprintf(master_mask, "Recort:%4Lu ",ptr_save);
016A2:  MOVLW  05
016A4:  MOVWF  537
016A6:  MOVLW  07
016A8:  MOVWF  536
016AA:  MOVLW  46
016AC:  MOVWF  4F6
016AE:  MOVLW  06
016B0:  MOVWF  4F7
016B2:  MOVLW  00
016B4:  MOVWF  4F8
016B6:  MOVLW  07
016B8:  MOVLB  1D
016BA:  MOVWF  x48
016BC:  MOVLB  0
016BE:  RCALL  1014
016C0:  MOVLW  01
016C2:  MOVWF  4E9
016C4:  MOVFFL 528,1D49
016CA:  MOVFFL 527,1D48
016D0:  RCALL  13B2
016D2:  MOVLW  20
016D4:  MOVLB  1D
016D6:  MOVWF  x51
016D8:  MOVLB  0
016DA:  CALL   0B6E
....................     Show_String8x16(master_mask, 5, 2); 
016DE:  MOVLW  05
016E0:  MOVLB  1D
016E2:  MOVWF  x49
016E4:  MOVLW  07
016E6:  MOVWF  x48
016E8:  MOVLW  05
016EA:  MOVWF  x4A
016EC:  MOVLW  02
016EE:  MOVWF  x4B
016F0:  MOVLB  0
016F2:  CALL   0D46
.................... 
....................     delay_ms(10);
016F6:  MOVLW  0A
016F8:  MOVLB  1D
016FA:  MOVWF  x48
016FC:  MOVLB  0
016FE:  CALL   079E
01702:  GOTO   1A68 (RETURN)
.................... }
.................... 
....................  
.................... 
.................... void BNO055_read_accel()
.................... {
.................... 
....................     unsigned char xD_lsb, xD_msb, yD_lsb, yD_msb, zD_lsb, zD_msb;
....................     signed int16 xD, yD, zD;
....................   
.................... 
....................     // Set start address for reading acceleration data
....................     i2c_start(BNO);
....................     i2c_write(BNO, BNO055_ADDRESS_A << 1); // Write mode
....................     i2c_write(BNO, ACC_DATA_X_LSB); // Start address
....................     i2c_start(BNO);
....................     i2c_write(BNO, (BNO055_ADDRESS_A << 1) | 1); // Read mode
.................... 
....................     // Read the acceleration data
....................     xD_lsb = i2c_read(BNO, 1); // Read X LSB with ACK
....................     xD_msb = i2c_read(BNO, 1); // Read X MSB with ACK
....................     yD_lsb = i2c_read(BNO, 1); // Read Y LSB with ACK
....................     yD_msb = i2c_read(BNO, 1); // Read Y MSB with ACK
....................     zD_lsb = i2c_read(BNO, 1); // Read Z LSB with ACK
....................     zD_msb = i2c_read(BNO, 0); // Read Z MSB with NACK
.................... 
....................     i2c_stop(BNO);
.................... 
....................     // Combine MSB and LSB
....................     xD = ((int16)xD_msb << 8) | xD_lsb;
....................     yD = ((int16)yD_msb << 8) | yD_lsb;
....................     zD = ((int16)zD_msb << 8) | zD_lsb;
.................... 
....................     // Print the results
....................     sprintf(master_mask, "X data  : %3Ld ", xD);
....................      Show_String8x16(master_mask, 0, 2);
.................... 
....................     sprintf(master_mask, "Y data  : %3Ld ", yD);
....................      Show_String8x16(master_mask, 0, 4);
.................... 
....................     sprintf(master_mask, "Z data  : %3Ld ", zD);
....................      Show_String8x16(master_mask, 0, 6);
....................     
....................      bno_xD= xD;
....................      bno_yD= yD;
....................      bno_zD= zD;
....................     
....................     printf("XD:%3Ld \r\n",xD);
....................     printf("YD:%3Ld \r\n",yD);
....................     printf("ZD:%3Ld \r\n\r\n",zD);
.................... 
....................     delay_ms(100);
....................     
.................... }
.................... 
.................... 
.................... 
.................... 
.................... #include <save_data.c>
.................... //!
.................... //!void write16_eeprom(int32 ad_reg , int16 bb)
.................... //!{
.................... //!struct s {
.................... //!   int8 low;
.................... //!   int8 high;
.................... //!} wr16;
.................... //!    wr16 = bb;
.................... //!    
.................... //!    write_eeprom( ad_reg  , wr16.low );
.................... //!    write_eeprom( ad_reg+1, wr16.high );
.................... //! 
.................... //!}
.................... //!
.................... //!int16 read16_eeprom(int32 ad_reg  )
.................... //!{
.................... //!struct s {
.................... //!   int8 low;
.................... //!   int8 high;
.................... //!} rd16;
.................... //!    int16 rd_w;
.................... //!    rd16.low  = read_eeprom( ad_reg );
.................... //!    rd16.high = read_eeprom( ad_reg+1 );
.................... //!    rd_w = rd16;
.................... //!    return(rd_w);
.................... //! 
.................... //!}
.................... //!
.................... //!void WRITE_FLOAT_EEPROM(long int n, float data) { 
.................... //!   int i;
.................... //!
.................... //!   for (i = 0; i < 4; i++) 
.................... //!      write_eeprom(i + n, *((int8*)&data + i) ) ; 
.................... //!}
.................... //!
.................... //!
.................... //!
.................... //!float READ_FLOAT_EEPROM(long int n) { 
.................... //!   int i; 
.................... //!   float data;
.................... //!
.................... //!   for (i = 0; i < 4; i++) 
.................... //!      *((int8*)&data + i) = read_eeprom(i + n);
.................... //!
.................... //!   return(data); 
.................... //!}
.................... //!
.................... //!int32 readLword_eeprom( char iaddr )     // rerad32 bit char
.................... //!{
.................... //!struct s {
.................... //!   int8 low;
.................... //!   int8 mid;
.................... //!   int8 high;
.................... //!   int8 ehigh;
.................... //!} rd32;
.................... //!    int32 rd_Lw;
.................... //!    rd32.low  = read_eeprom( iaddr );
.................... //!    rd32.mid  = read_eeprom( iaddr+1 );
.................... //!    rd32.high = read_eeprom( iaddr+2 );
.................... //!    rd32.ehigh= read_eeprom( iaddr+3 );
.................... //!    rd_Lw = rd32;
.................... //!    return(rd_Lw);
.................... //!}
.................... //!
.................... //!
.................... //!void writeLword_eeprom( char iaddr, int32 wdata )      // write 32 bit char 
.................... //!{
.................... //!struct s {
.................... //!   int8 low;
.................... //!   int8 mid;
.................... //!   int8 high;
.................... //!   int8 ehigh;
.................... //!} wr32;
.................... //!    wr32 = wdata;
.................... //!    write_eeprom( iaddr  , wr32.low );
.................... //!    write_eeprom( iaddr+1, wr32.mid );
.................... //!    write_eeprom( iaddr+2, wr32.high );
.................... //!    write_eeprom( iaddr+3, wr32.ehigh );
.................... //!}
.................... //!
.................... 
.................... signed int16 save_acelx[1024];
.................... signed int16 seve_acely[1024];
.................... signed int16 save_acelz[1024];
.................... //!signed int16 save_acelxD[512];
.................... //!signed int16 seve_acelyD[512];
.................... //!signed int16 save_acelzD[512];
.................... void  write_paket(int16  ptr)
.................... {
....................     save_acelx[ptr_save]= bno_x;
01706:  BCF    4D8.0
01708:  RLCF   527,W
0170A:  MOVWF  502
0170C:  RLCF   528,W
0170E:  MOVWF  503
01710:  MOVF   502,W
01712:  ADDLW  38
01714:  MOVWF  4E9
01716:  MOVLW  05
01718:  ADDWFC 503,W
0171A:  MOVWF  4EA
0171C:  MOVFF  52B,4EC
01720:  MOVF   4ED,F
01722:  MOVFF  52A,4EF
....................     seve_acely[ptr_save]= bno_y;
01726:  BCF    4D8.0
01728:  RLCF   527,W
0172A:  MOVWF  502
0172C:  RLCF   528,W
0172E:  MOVWF  503
01730:  MOVF   502,W
01732:  ADDLW  38
01734:  MOVWF  4E9
01736:  MOVLW  0D
01738:  ADDWFC 503,W
0173A:  MOVWF  4EA
0173C:  MOVFF  52D,4EC
01740:  MOVF   4ED,F
01742:  MOVFF  52C,4EF
....................     save_acelz[ptr_save]= bno_z;       
01746:  BCF    4D8.0
01748:  RLCF   527,W
0174A:  MOVWF  502
0174C:  RLCF   528,W
0174E:  MOVWF  503
01750:  MOVF   502,W
01752:  ADDLW  38
01754:  MOVWF  4E9
01756:  MOVLW  15
01758:  ADDWFC 503,W
0175A:  MOVWF  4EA
0175C:  MOVFF  52F,4EC
01760:  MOVF   4ED,F
01762:  MOVFF  52E,4EF
.................... //! save_acelxD[ptr_save]= bno_xD;
.................... //! seve_acelyD[ptr_save]= bno_yD;
.................... //! save_acelzD[ptr_save]= bno_zD;    
....................    
....................     ptr_save++;
01766:  INCF   527,F
01768:  BTFSC  4D8.2
0176A:  INCF   528,F
0176C:  GOTO   1A76 (RETURN)
....................     
.................... }
.................... 
.................... 
....................  
....................  
.................... 
.................... 
.................... 
.................... 
.................... 
.................... #zero_ram
.................... 
....................  
....................    
.................... VOID init_ports( void )
....................    {
....................        set_TRIS_A (0b00010111);  // pin A0,A1,A2,A4 EISODOI //PIN A3,A5,A6,A7 EJODOI 
*
00790:  MOVLW  17
00792:  MOVWF  4C6
....................        set_TRIS_B (0b00010111);  // PIN B0,B1,B2,B4 EISODOI //PIN B3,B5,B6,B7 EJODOI   
00794:  MOVWF  4C7
....................        set_TRIS_F (0b11110111);  // PIN F1,F4 EISODOI // PIN F0,F2,F3,F5,F6,F7 EJODOI
00796:  MOVLW  F7
00798:  MOVWF  4CB
0079A:  GOTO   18C2 (RETURN)
....................        
....................        
....................    }
....................    
.................... 
....................  
.................... VOID main() 
*
0182E:  CLRF   4F8
01830:  BCF    4D6.5
01832:  MOVLB  E
01834:  MOVLW  55
01836:  MOVLB  2
01838:  MOVWF  x00
0183A:  MOVLW  AA
0183C:  MOVWF  x00
0183E:  BCF    x00.0
01840:  MOVLW  04
01842:  MOVWF  x76
01844:  MOVLW  26
01846:  MOVWF  x04
01848:  MOVLW  55
0184A:  MOVWF  x00
0184C:  MOVLW  AA
0184E:  MOVWF  x00
01850:  BSF    x00.0
01852:  MOVLW  FE
01854:  MOVWF  500
01856:  MOVLW  20
01858:  MOVWF  501
0185A:  MOVLW  02
0185C:  MOVWF  4E9
0185E:  MOVLW  05
01860:  MOVWF  4EA
01862:  CLRF   4EE
01864:  DECFSZ 500,F
01866:  BRA    1862
01868:  DECFSZ 501,F
0186A:  BRA    1862
0186C:  MOVLB  0
0186E:  CLRF   xB0
01870:  CLRF   xAF
01872:  CLRF   xB3
01874:  MOVLW  06
01876:  MOVWF  xB1
01878:  MOVLW  60
0187A:  MOVWF  xAD
0187C:  CLRF   504
0187E:  MOVLB  2
01880:  BCF    xD2.7
01882:  BCF    4C6.3
01884:  BSF    4BE.3
01886:  MOVLW  B0
01888:  MOVWF  xD1
0188A:  MOVLW  03
0188C:  MOVWF  xD5
0188E:  MOVLW  40
01890:  MOVWF  xD4
01892:  CLRF   xD3
01894:  BSF    xD2.7
01896:  MOVLW  8F
01898:  MOVWF  529
0189A:  CLRF   537
0189C:  CLRF   536
0189E:  MOVLB  4
018A0:  CLRF   x00
018A2:  CLRF   x08
018A4:  CLRF   x10
018A6:  CLRF   x18
018A8:  CLRF   x20
018AA:  CLRF   x28
018AC:  MOVLB  0
018AE:  CLRF   x71
018B0:  CLRF   x72
018B2:  CLRF   x73
018B4:  CLRF   x70
018B6:  CLRF   x75
018B8:  CLRF   x76
018BA:  CLRF   x77
018BC:  CLRF   x74
....................    {
....................        init_ports () ;
018BE:  GOTO   0790
....................         
....................        port_b_pullups (0b00010111);     // set  pull up resistor rb0,rb1,rb2,rb4
018C2:  MOVLW  17
018C4:  MOVLB  4
018C6:  MOVWF  x09
....................       
....................       
....................       Initial_1306 () ;         // init oled 
018C8:  MOVLB  0
018CA:  GOTO   0820
....................       delay_ms (200) ;
018CE:  MOVLW  C8
018D0:  MOVLB  1D
018D2:  MOVWF  x48
018D4:  MOVLB  0
018D6:  CALL   079E
.................... 
....................       lcd_clrscroled (0x00);   // all pixel off
018DA:  MOVLB  1D
018DC:  CLRF   x3C
018DE:  MOVLB  0
018E0:  CALL   0AF4
....................     
....................  
....................  
....................       //  master_mask,stili,grammi
....................       sprintf (master_mask, "Mixalis") ;  
018E4:  MOVLW  05
018E6:  MOVWF  537
018E8:  MOVLW  07
018EA:  MOVWF  536
018EC:  MOVLW  AA
018EE:  MOVWF  4F6
018F0:  MOVLW  06
018F2:  MOVWF  4F7
018F4:  MOVLW  00
018F6:  MOVWF  4F8
018F8:  CALL   0B8E
....................       Show_String8x16(master_mask, 0, 0) ;
018FC:  MOVLW  05
018FE:  MOVLB  1D
01900:  MOVWF  x49
01902:  MOVLW  07
01904:  MOVWF  x48
01906:  CLRF   x4A
01908:  CLRF   x4B
0190A:  MOVLB  0
0190C:  CALL   0D46
....................       sprintf (master_mask,"Papaioannou");
01910:  MOVLW  05
01912:  MOVWF  537
01914:  MOVLW  07
01916:  MOVWF  536
01918:  MOVLW  B2
0191A:  MOVWF  4F6
0191C:  MOVLW  06
0191E:  MOVWF  4F7
01920:  MOVLW  00
01922:  MOVWF  4F8
01924:  CALL   0B8E
....................       Show_String8x16(master_mask,0, 3);
01928:  MOVLW  05
0192A:  MOVLB  1D
0192C:  MOVWF  x49
0192E:  MOVLW  07
01930:  MOVWF  x48
01932:  CLRF   x4A
01934:  MOVLW  03
01936:  MOVWF  x4B
01938:  MOVLB  0
0193A:  CALL   0D46
....................       sprintf (master_mask,"2024");
0193E:  MOVLW  05
01940:  MOVWF  537
01942:  MOVLW  07
01944:  MOVWF  536
01946:  MOVLW  BE
01948:  MOVWF  4F6
0194A:  MOVLW  06
0194C:  MOVWF  4F7
0194E:  MOVLW  00
01950:  MOVWF  4F8
01952:  CALL   0B8E
....................       Show_String8x16(master_mask,3, 6);
01956:  MOVLW  05
01958:  MOVLB  1D
0195A:  MOVWF  x49
0195C:  MOVLW  07
0195E:  MOVWF  x48
01960:  MOVLW  03
01962:  MOVWF  x4A
01964:  MOVLW  06
01966:  MOVWF  x4B
01968:  MOVLB  0
0196A:  CALL   0D46
....................       printf(" PROJECT \r\n");
0196E:  MOVLW  C4
01970:  MOVWF  4F6
01972:  MOVLW  06
01974:  MOVWF  4F7
01976:  MOVLW  00
01978:  MOVWF  4F8
0197A:  CALL   0D98
....................        
....................       delay_ms(2000);
0197E:  MOVLW  08
01980:  MOVLB  1D
01982:  MOVWF  x3C
01984:  MOVLW  FA
01986:  MOVWF  x48
01988:  MOVLB  0
0198A:  CALL   079E
0198E:  MOVLB  1D
01990:  DECFSZ x3C,F
01992:  BRA    1984
....................       
....................        
....................       lcd_clrscroled (0x00);   // all pixel off
01994:  CLRF   x3C
01996:  MOVLB  0
01998:  CALL   0AF4
....................       
....................      
....................       BNO055_Config () ;
0199C:  GOTO   0E48
....................       delay_ms (400) ;
019A0:  MOVLW  02
019A2:  MOVLB  1D
019A4:  MOVWF  x3C
019A6:  MOVLW  C8
019A8:  MOVWF  x48
019AA:  MOVLB  0
019AC:  CALL   079E
019B0:  MOVLB  1D
019B2:  DECFSZ x3C,F
019B4:  BRA    19A6
....................       BNO055_read_register_id();
019B6:  MOVLB  0
019B8:  GOTO   109C
....................       delay_ms(500);
019BC:  MOVLW  02
019BE:  MOVLB  1D
019C0:  MOVWF  x3C
019C2:  MOVLW  FA
019C4:  MOVWF  x48
019C6:  MOVLB  0
019C8:  CALL   079E
019CC:  MOVLB  1D
019CE:  DECFSZ x3C,F
019D0:  BRA    19C2
....................       lcd_clrscroled (0x00);
019D2:  CLRF   x3C
019D4:  MOVLB  0
019D6:  CALL   0AF4
....................       
.................... 
.................... int previous_button_state = 0; // Initial button state (not pressed)
.................... int button_state = 0;  
.................... int current_state = 0;
.................... int current_button_input = 0;
019DA:  MOVLB  1D
019DC:  CLRF   x38
019DE:  CLRF   x39
019E0:  CLRF   x3A
019E2:  CLRF   x3B
.................... 
.................... 
.................... ptr_save = 0;
019E4:  CLRF   528
019E6:  CLRF   527
.................... 
.................... while(TRUE) {
.................... 
....................     current_button_input = input(BUTTON); // Read current button state
019E8:  BSF    4C7.4
019EA:  CLRF   x3B
019EC:  BTFSC  4CF.4
019EE:  INCF   x3B,F
....................     // Check if the button is pressed
....................     if(current_button_input == 1 && previous_button_state == 0) {
019F0:  DECFSZ x3B,W
019F2:  BRA    1D7C
019F4:  MOVF   x38,F
019F6:  BTFSS  4D8.2
019F8:  BRA    1D7C
....................         delay_ms(20); // Debounce delay
019FA:  MOVLW  14
019FC:  MOVWF  x48
019FE:  MOVLB  0
01A00:  CALL   079E
....................         if(input(BUTTON) == 1) {  // Confirm the button is still pressed
01A04:  BSF    4C7.4
01A06:  BTFSS  4CF.4
01A08:  BRA    1D7A
....................             button_state = 1;
01A0A:  MOVLW  01
01A0C:  MOVLB  1D
01A0E:  MOVWF  x39
....................             current_state++;
01A10:  INCF   x3A,F
....................             
....................             if(current_state > 2) {
01A12:  MOVF   x3A,W
01A14:  SUBLW  02
01A16:  BC    1A1A
....................                 current_state = 0;  // Reset to the initial state
01A18:  CLRF   x3A
....................                 
....................             }
.................... 
....................             switch(current_state) {
01A1A:  MOVF   x3A,W
01A1C:  XORLW  00
01A1E:  MOVLB  0
01A20:  BZ    1A2C
01A22:  XORLW  01
01A24:  BZ    1A94
01A26:  XORLW  03
01A28:  BZ    1AF0
01A2A:  BRA    1D7A
....................                 case 0:
....................                     lcd_clrscroled(0x00);
01A2C:  MOVLB  1D
01A2E:  CLRF   x3C
01A30:  MOVLB  0
01A32:  CALL   0AF4
....................                     output_low(LED);  
01A36:  BCF    4CB.3
01A38:  BCF    4C3.3
....................                     printf("case 0: Continuously reading sensor data\n\r");
01A3A:  MOVLW  D0
01A3C:  MOVWF  4F6
01A3E:  MOVLW  06
01A40:  MOVWF  4F7
01A42:  MOVLW  00
01A44:  MOVWF  4F8
01A46:  CALL   0D98
....................                     
....................                     delay_ms(500);
01A4A:  MOVLW  02
01A4C:  MOVLB  1D
01A4E:  MOVWF  x3C
01A50:  MOVLW  FA
01A52:  MOVWF  x48
01A54:  MOVLB  0
01A56:  CALL   079E
01A5A:  MOVLB  1D
01A5C:  DECFSZ x3C,F
01A5E:  BRA    1A50
....................                     // Continuous sensor reading until the button is pressed again
....................                     while(current_state == 0) {
01A60:  MOVF   x3A,F
01A62:  BNZ   1A90
....................                         BNO055_read_linear_accel();  
01A64:  MOVLB  0
01A66:  BRA    1488
....................                        
....................                         write_paket(ptr_save);
01A68:  MOVFFL 528,1D3D
01A6E:  MOVFFL 527,1D3C
01A74:  BRA    1706
....................                         
....................                         delay_ms(10); 
01A76:  MOVLW  0A
01A78:  MOVLB  1D
01A7A:  MOVWF  x48
01A7C:  MOVLB  0
01A7E:  CALL   079E
....................                         if(input(BUTTON)!= 1){
01A82:  BSF    4C7.4
01A84:  BTFSC  4CF.4
01A86:  BRA    1A8C
....................                            break;
01A88:  MOVLB  1D
01A8A:  BRA    1A90
....................                         }
01A8C:  MOVLB  1D
01A8E:  BRA    1A60
....................                                  
....................                     }                                    
....................                   break;
01A90:  MOVLB  0
01A92:  BRA    1D7A
....................                         
....................                     
.................... 
....................                 case 1:
....................    
....................                     lcd_clrscroled(0x00);
01A94:  MOVLB  1D
01A96:  CLRF   x3C
01A98:  MOVLB  0
01A9A:  CALL   0AF4
....................                     output_high(LED);  
01A9E:  BCF    4CB.3
01AA0:  BSF    4C3.3
....................                     delay_ms(100);
01AA2:  MOVLW  64
01AA4:  MOVLB  1D
01AA6:  MOVWF  x48
01AA8:  MOVLB  0
01AAA:  CALL   079E
....................                     printf("case 1: State has changed.\n\r");
01AAE:  MOVLW  FC
01AB0:  MOVWF  4F6
01AB2:  MOVLW  06
01AB4:  MOVWF  4F7
01AB6:  MOVLW  00
01AB8:  MOVWF  4F8
01ABA:  CALL   0D98
....................                     
....................                     sprintf(master_mask, "PAUSE");
01ABE:  MOVLW  05
01AC0:  MOVWF  537
01AC2:  MOVLW  07
01AC4:  MOVWF  536
01AC6:  MOVLW  1A
01AC8:  MOVWF  4F6
01ACA:  MOVLW  07
01ACC:  MOVWF  4F7
01ACE:  MOVLW  00
01AD0:  MOVWF  4F8
01AD2:  CALL   0B8E
....................                     Show_String8x16(master_mask, 5, 2);
01AD6:  MOVLW  05
01AD8:  MOVLB  1D
01ADA:  MOVWF  x49
01ADC:  MOVLW  07
01ADE:  MOVWF  x48
01AE0:  MOVLW  05
01AE2:  MOVWF  x4A
01AE4:  MOVLW  02
01AE6:  MOVWF  x4B
01AE8:  MOVLB  0
01AEA:  CALL   0D46
....................                     
....................                     break;
01AEE:  BRA    1D7A
....................                     
....................                 case 2:
....................                  output_high(LED);  
01AF0:  BCF    4CB.3
01AF2:  BSF    4C3.3
....................                     delay_ms(500);
01AF4:  MOVLW  02
01AF6:  MOVLB  1D
01AF8:  MOVWF  x3C
01AFA:  MOVLW  FA
01AFC:  MOVWF  x48
01AFE:  MOVLB  0
01B00:  CALL   079E
01B04:  MOVLB  1D
01B06:  DECFSZ x3C,F
01B08:  BRA    1AFA
....................                     output_low(LED);
01B0A:  BCF    4CB.3
01B0C:  BCF    4C3.3
....................                     delay_ms(500);
01B0E:  MOVLW  02
01B10:  MOVWF  x3C
01B12:  MOVLW  FA
01B14:  MOVWF  x48
01B16:  MOVLB  0
01B18:  CALL   079E
01B1C:  MOVLB  1D
01B1E:  DECFSZ x3C,F
01B20:  BRA    1B12
....................                     output_high(LED); 
01B22:  BCF    4CB.3
01B24:  BSF    4C3.3
....................                     delay_ms(500);
01B26:  MOVLW  02
01B28:  MOVWF  x3C
01B2A:  MOVLW  FA
01B2C:  MOVWF  x48
01B2E:  MOVLB  0
01B30:  CALL   079E
01B34:  MOVLB  1D
01B36:  DECFSZ x3C,F
01B38:  BRA    1B2A
....................                     lcd_clrscroled(0x00);  // Clear OLED screen
01B3A:  CLRF   x3C
01B3C:  MOVLB  0
01B3E:  CALL   0AF4
.................... 
....................                     printf("case 2: READ SAVE DATA \n\r");
01B42:  MOVLW  20
01B44:  MOVWF  4F6
01B46:  MOVLW  07
01B48:  MOVWF  4F7
01B4A:  MOVLW  00
01B4C:  MOVWF  4F8
01B4E:  CALL   0D98
.................... 
....................                      
....................                      for(i=0; i<=ptr_save; i++ )
01B52:  CLRF   506
01B54:  CLRF   505
01B56:  MOVF   506,W
01B58:  SUBWF  528,W
01B5A:  BTFSS  4D8.0
01B5C:  BRA    1D08
01B5E:  BNZ   1B68
01B60:  MOVF   505,W
01B62:  SUBWF  527,W
01B64:  BTFSS  4D8.0
01B66:  BRA    1D08
....................                       {
....................                        sprintf (master_mask,"EXPORT DATA:%3Lu",i);
01B68:  MOVLW  05
01B6A:  MOVWF  537
01B6C:  MOVLW  07
01B6E:  MOVWF  536
01B70:  MOVLW  3A
01B72:  MOVWF  4F6
01B74:  MOVLW  07
01B76:  MOVWF  4F7
01B78:  MOVLW  00
01B7A:  MOVWF  4F8
01B7C:  MOVLW  0C
01B7E:  MOVLB  1D
01B80:  MOVWF  x48
01B82:  MOVLB  0
01B84:  CALL   1014
01B88:  MOVLW  02
01B8A:  MOVWF  4E9
01B8C:  MOVFFL 506,1D49
01B92:  MOVFFL 505,1D48
01B98:  RCALL  13B2
....................                        Show_String8x16(master_mask,1, 2);                    
01B9A:  MOVLW  05
01B9C:  MOVLB  1D
01B9E:  MOVWF  x49
01BA0:  MOVLW  07
01BA2:  MOVWF  x48
01BA4:  MOVLW  01
01BA6:  MOVWF  x4A
01BA8:  MOVLW  02
01BAA:  MOVWF  x4B
01BAC:  MOVLB  0
01BAE:  CALL   0D46
....................                        
....................                        printf("XL:%3Ld \r\n",save_acelx[i]);
01BB2:  BCF    4D8.0
01BB4:  RLCF   505,W
01BB6:  MOVWF  502
01BB8:  RLCF   506,W
01BBA:  MOVWF  503
01BBC:  MOVF   502,W
01BBE:  ADDLW  38
01BC0:  MOVWF  4E9
01BC2:  MOVLW  05
01BC4:  ADDWFC 503,W
01BC6:  MOVWF  4EA
01BC8:  MOVFFL 4EC,1D3D
01BCE:  MOVF   4ED,F
01BD0:  MOVFFL 4EF,1D3C
01BD6:  MOVLW  4C
01BD8:  MOVWF  4F6
01BDA:  MOVLW  07
01BDC:  MOVWF  4F7
01BDE:  MOVLW  00
01BE0:  MOVWF  4F8
01BE2:  MOVLW  03
01BE4:  MOVLB  1D
01BE6:  MOVWF  x48
01BE8:  MOVLB  0
01BEA:  CALL   127E
01BEE:  MOVLW  03
01BF0:  MOVWF  4E9
01BF2:  MOVFFL 1D3D,1D49
01BF8:  MOVFFL 1D3C,1D48
01BFE:  CALL   12BE
01C02:  MOVLW  53
01C04:  MOVWF  4F6
01C06:  MOVLW  07
01C08:  MOVWF  4F7
01C0A:  MOVLW  00
01C0C:  MOVWF  4F8
01C0E:  MOVLW  03
01C10:  MOVLB  1D
01C12:  MOVWF  x48
01C14:  MOVLB  0
01C16:  CALL   127E
....................                        printf("YL:%3Ld \r\n",seve_acely[i]);
01C1A:  BCF    4D8.0
01C1C:  RLCF   505,W
01C1E:  MOVWF  502
01C20:  RLCF   506,W
01C22:  MOVWF  503
01C24:  MOVF   502,W
01C26:  ADDLW  38
01C28:  MOVWF  4E9
01C2A:  MOVLW  0D
01C2C:  ADDWFC 503,W
01C2E:  MOVWF  4EA
01C30:  MOVFFL 4EC,1D3D
01C36:  MOVF   4ED,F
01C38:  MOVFFL 4EF,1D3C
01C3E:  MOVLW  58
01C40:  MOVWF  4F6
01C42:  MOVLW  07
01C44:  MOVWF  4F7
01C46:  MOVLW  00
01C48:  MOVWF  4F8
01C4A:  MOVLW  03
01C4C:  MOVLB  1D
01C4E:  MOVWF  x48
01C50:  MOVLB  0
01C52:  CALL   127E
01C56:  MOVLW  03
01C58:  MOVWF  4E9
01C5A:  MOVFFL 1D3D,1D49
01C60:  MOVFFL 1D3C,1D48
01C66:  CALL   12BE
01C6A:  MOVLW  5F
01C6C:  MOVWF  4F6
01C6E:  MOVLW  07
01C70:  MOVWF  4F7
01C72:  MOVLW  00
01C74:  MOVWF  4F8
01C76:  MOVLW  03
01C78:  MOVLB  1D
01C7A:  MOVWF  x48
01C7C:  MOVLB  0
01C7E:  CALL   127E
....................                        printf("ZL:%3Ld \r\n\r\n",save_acelz[i]);                        
01C82:  BCF    4D8.0
01C84:  RLCF   505,W
01C86:  MOVWF  502
01C88:  RLCF   506,W
01C8A:  MOVWF  503
01C8C:  MOVF   502,W
01C8E:  ADDLW  38
01C90:  MOVWF  4E9
01C92:  MOVLW  15
01C94:  ADDWFC 503,W
01C96:  MOVWF  4EA
01C98:  MOVFFL 4EC,1D3D
01C9E:  MOVF   4ED,F
01CA0:  MOVFFL 4EF,1D3C
01CA6:  MOVLW  64
01CA8:  MOVWF  4F6
01CAA:  MOVLW  07
01CAC:  MOVWF  4F7
01CAE:  MOVLW  00
01CB0:  MOVWF  4F8
01CB2:  MOVLW  03
01CB4:  MOVLB  1D
01CB6:  MOVWF  x48
01CB8:  MOVLB  0
01CBA:  CALL   127E
01CBE:  MOVLW  03
01CC0:  MOVWF  4E9
01CC2:  MOVFFL 1D3D,1D49
01CC8:  MOVFFL 1D3C,1D48
01CCE:  CALL   12BE
01CD2:  MOVLW  6B
01CD4:  MOVWF  4F6
01CD6:  MOVLW  07
01CD8:  MOVWF  4F7
01CDA:  MOVLW  00
01CDC:  MOVWF  4F8
01CDE:  MOVLW  05
01CE0:  MOVLB  1D
01CE2:  MOVWF  x48
01CE4:  MOVLB  0
01CE6:  CALL   127E
....................                        delay_ms(50); 
01CEA:  MOVLW  32
01CEC:  MOVLB  1D
01CEE:  MOVWF  x48
01CF0:  MOVLB  0
01CF2:  CALL   079E
....................                        lcd_clrscroled (0x00);
01CF6:  MOVLB  1D
01CF8:  CLRF   x3C
01CFA:  MOVLB  0
01CFC:  CALL   0AF4
01D00:  INCF   505,F
01D02:  BTFSC  4D8.2
01D04:  INCF   506,F
01D06:  BRA    1B56
....................                       }
....................                     printf("Counter_Data: %4Lu\n\r",ptr_save);
01D08:  MOVLW  72
01D0A:  MOVWF  4F6
01D0C:  MOVLW  07
01D0E:  MOVWF  4F7
01D10:  MOVLW  00
01D12:  MOVWF  4F8
01D14:  MOVLW  0E
01D16:  MOVLB  1D
01D18:  MOVWF  x48
01D1A:  MOVLB  0
01D1C:  CALL   127E
01D20:  MOVLW  01
01D22:  MOVWF  4E9
01D24:  MOVFFL 528,1D3D
01D2A:  MOVFFL 527,1D3C
01D30:  BRA    1770
01D32:  MOVLW  0A
01D34:  BTFSS  4B7.1
01D36:  BRA    1D34
01D38:  MOVLB  2
01D3A:  MOVWF  xC9
01D3C:  MOVLW  0D
01D3E:  BTFSS  4B7.1
01D40:  BRA    1D3E
01D42:  MOVWF  xC9
....................                     ptr_save = 0;
01D44:  CLRF   528
01D46:  CLRF   527
....................                     sprintf(master_mask, "FINISH");
01D48:  MOVLW  05
01D4A:  MOVWF  537
01D4C:  MOVLW  07
01D4E:  MOVWF  536
01D50:  MOVLW  88
01D52:  MOVWF  4F6
01D54:  MOVLW  07
01D56:  MOVWF  4F7
01D58:  MOVLW  00
01D5A:  MOVWF  4F8
01D5C:  MOVLB  0
01D5E:  CALL   0B8E
....................                     Show_String8x16(master_mask, 5, 2);
01D62:  MOVLW  05
01D64:  MOVLB  1D
01D66:  MOVWF  x49
01D68:  MOVLW  07
01D6A:  MOVWF  x48
01D6C:  MOVLW  05
01D6E:  MOVWF  x4A
01D70:  MOVLW  02
01D72:  MOVWF  x4B
01D74:  MOVLB  0
01D76:  CALL   0D46
....................                     
....................                     break;
01D7A:  MOVLB  1D
.................... 
....................          
....................             }
....................         }
....................     }
....................     // Update the previous button state
....................     previous_button_state = current_button_input;
01D7C:  MOVFFL 1D3B,1D38
01D82:  BRA    19E8
....................  }  
.................... }
01D84:  SLEEP 

Configuration Fuses:
   Word  1: FFEC   NOEXTOSC RSTOSC_HFINTRC_1MHZ NOCLKOUT PRLOCK1WAY CKS FCMEN
   Word  2: DF37   MCLR NOPUT NOMVECEN IVT1WAY NOLPBOR NOBROWNOUT BORV19 ZCDDIS PPS1WAY STVREN NOLVP NOXINST
   Word  3: FF9F   WDTSW NOWDT WDTWIN_SW WDTCLK_SW
   Word  4: FFFF   BBSIZ512 NOBOOTBLOCK NOSAF NODEBUG NOWRTB NOWRTC NOWRTD NOWRTSAF NOWRT
   Word  5: FFFF   NOPROTECT
